EXPORTS 
	??_R0?AV?$_Iosb@H@std@@@8 	 DATA
	??_R0?AV?$basic_filebuf@DU?$char_traits@D@std@@@std@@@8 	 DATA
	??_R0?AV?$basic_ifstream@DU?$char_traits@D@std@@@std@@@8 	 DATA
	??_R0?AV?$basic_ios@DU?$char_traits@D@std@@@std@@@8 	 DATA
	??_R0?AV?$basic_iostream@DU?$char_traits@D@std@@@std@@@8 	 DATA
	??_R0?AV?$basic_istream@DU?$char_traits@D@std@@@std@@@8 	 DATA
	??_R0?AV?$basic_istringstream@DU?$char_traits@D@std@@V?$allocator@D@2@@std@@@8 	 DATA
	??_R0?AV?$basic_ofstream@DU?$char_traits@D@std@@@std@@@8 	 DATA
	??_R0?AV?$basic_ostream@DU?$char_traits@D@std@@@std@@@8 	 DATA
	??_R0?AV?$basic_streambuf@DU?$char_traits@D@std@@@std@@@8 	 DATA
	??_R0?AV?$basic_stringbuf@DU?$char_traits@D@std@@V?$allocator@D@2@@std@@@8 	 DATA
	??_R0?AV?$basic_stringstream@DU?$char_traits@D@std@@V?$allocator@D@2@@std@@@8 	 DATA
	??_R0?AVException@BookEngine@@@8 	 DATA
	??_R0?AVGameObject@BookEngine@@@8 	 DATA
	??_R0?AVIGame@BookEngine@@@8 	 DATA
	??_R0?AVStateList@@@8 	 DATA
	??_R0?AVbad_cast@std@@@8 	 DATA
	??_R0?AVexception@std@@@8 	 DATA
	??_R0?AVios_base@std@@@8 	 DATA
	??_R0H@8 	 DATA
	?_OptionsStorage@?1??__local_stdio_printf_options@@9@4_KA 	 DATA
	?_Psave@?$_Facetptr@V?$codecvt@DDU_Mbstatet@@@std@@@std@@2PBVfacet@locale@2@B 	 DATA
	?_Stinit@?1??_Init@?$basic_filebuf@DU?$char_traits@D@std@@@std@@IAEXPAU_iobuf@@W4_Initfl@23@@Z@4U_Mbstatet@@A 	 DATA
	?m_textureCache@ResourceManager@BookEngine@@0VTextureCache@2@A 	 DATA
	??$?0$$TH$0A@@?$pair@PAPAVGlyph@BookEngine@@H@std@@QAE@$$QA$$T$$QAH@Z
	??$?0$$V@?$_Compressed_pair@V?$allocator@D@std@@V?$_String_val@U?$_Simple_types@D@std@@@2@$00@std@@QAE@U_Zero_then_variadic_args_t@1@@Z
	??$?0$$V@?$_Compressed_pair@V?$allocator@E@std@@V?$_Vector_val@U?$_Simple_types@E@std@@@2@$00@std@@QAE@U_Zero_then_variadic_args_t@1@@Z
	??$?0$$V@?$_Compressed_pair@V?$allocator@H@std@@V?$_Vector_val@U?$_Simple_types@H@std@@@2@$00@std@@QAE@U_Zero_then_variadic_args_t@1@@Z
	??$?0$$V@?$_Compressed_pair@V?$allocator@I@std@@V?$_Vector_val@U?$_Simple_types@I@std@@@2@$00@std@@QAE@U_Zero_then_variadic_args_t@1@@Z
	??$?0$$V@?$_Compressed_pair@V?$allocator@K@std@@V?$_Vector_val@U?$_Simple_types@K@std@@@2@$00@std@@QAE@U_Zero_then_variadic_args_t@1@@Z
	??$?0$$V@?$_Compressed_pair@V?$allocator@PAVGlyph@BookEngine@@@std@@V?$_Vector_val@U?$_Simple_types@PAVGlyph@BookEngine@@@std@@@2@$00@std@@QAE@U_Zero_then_variadic_args_t@1@@Z
	??$?0$$V@?$_Compressed_pair@V?$allocator@PAVIScreen@BookEngine@@@std@@V?$_Vector_val@U?$_Simple_types@PAVIScreen@BookEngine@@@std@@@2@$00@std@@QAE@U_Zero_then_variadic_args_t@1@@Z
	??$?0$$V@?$_Compressed_pair@V?$allocator@PAVParticleBatch2D@BookEngine@@@std@@V?$_Vector_val@U?$_Simple_types@PAVParticleBatch2D@BookEngine@@@std@@@2@$00@std@@QAE@U_Zero_then_variadic_args_t@1@@Z
	??$?0$$V@?$_Compressed_pair@V?$allocator@U?$_Tree_node@U?$pair@$$CBV?$basic_string@DU?$char_traits@D@std@@V?$allocator@D@2@@std@@PAUMix_Chunk@@@std@@PAX@std@@@std@@V?$_Tree_val@U?$_Tree_simple_types@U?$pair@$$CBV?$basic_string@DU?$char_traits@D@std@@V?$allocator@D@2@@std@@PAUMix_Chunk@@@std@@@std@@@2@$00@std@@QAE@U_Zero_then_variadic_args_t@1@@Z
	??$?0$$V@?$_Compressed_pair@V?$allocator@U?$_Tree_node@U?$pair@$$CBV?$basic_string@DU?$char_traits@D@std@@V?$allocator@D@2@@std@@PAU_Mix_Music@@@std@@PAX@std@@@std@@V?$_Tree_val@U?$_Tree_simple_types@U?$pair@$$CBV?$basic_string@DU?$char_traits@D@std@@V?$allocator@D@2@@std@@PAU_Mix_Music@@@std@@@std@@@2@$00@std@@QAE@U_Zero_then_variadic_args_t@1@@Z
	??$?0$$V@?$_Compressed_pair@V?$allocator@U?$_Tree_node@U?$pair@$$CBV?$basic_string@DU?$char_traits@D@std@@V?$allocator@D@2@@std@@UGLTexture@BookEngine@@@std@@PAX@std@@@std@@V?$_Tree_val@U?$_Tree_simple_types@U?$pair@$$CBV?$basic_string@DU?$char_traits@D@std@@V?$allocator@D@2@@std@@UGLTexture@BookEngine@@@std@@@std@@@2@$00@std@@QAE@U_Zero_then_variadic_args_t@1@@Z
	??$?0$$V@?$_Compressed_pair@V?$allocator@U?$tvec2@M$0A@@glm@@@std@@V?$_Vector_val@U?$_Simple_types@U?$tvec2@M$0A@@glm@@@std@@@2@$00@std@@QAE@U_Zero_then_variadic_args_t@1@@Z
	??$?0$$V@?$_Compressed_pair@V?$allocator@U?$tvec3@M$0A@@glm@@@std@@V?$_Vector_val@U?$_Simple_types@U?$tvec3@M$0A@@glm@@@std@@@2@$00@std@@QAE@U_Zero_then_variadic_args_t@1@@Z
	??$?0$$V@?$_Compressed_pair@V?$allocator@U?$tvec4@M$0A@@glm@@@std@@V?$_Vector_val@U?$_Simple_types@U?$tvec4@M$0A@@glm@@@std@@@2@$00@std@@QAE@U_Zero_then_variadic_args_t@1@@Z
	??$?0$$V@?$_Compressed_pair@V?$allocator@UVertex2D@BookEngine@@@std@@V?$_Vector_val@U?$_Simple_types@UVertex2D@BookEngine@@@std@@@2@$00@std@@QAE@U_Zero_then_variadic_args_t@1@@Z
	??$?0$$V@?$_Compressed_pair@V?$allocator@VBatchRenderr@BookEngine@@@std@@V?$_Vector_val@U?$_Simple_types@VBatchRenderr@BookEngine@@@std@@@2@$00@std@@QAE@U_Zero_then_variadic_args_t@1@@Z
	??$?0$$V@?$_Compressed_pair@V?$allocator@VGlyph@BookEngine@@@std@@V?$_Vector_val@U?$_Simple_types@VGlyph@BookEngine@@@std@@@2@$00@std@@QAE@U_Zero_then_variadic_args_t@1@@Z
	??$?0AAPAPAVGlyph@BookEngine@@AAH$0A@@?$pair@PAPAVGlyph@BookEngine@@H@std@@QAE@AAPAPAVGlyph@BookEngine@@AAH@Z
	??$?0AAPAVScreenList@BookEngine@@@?$_Compressed_pair@U?$default_delete@VScreenList@BookEngine@@@std@@PAVScreenList@BookEngine@@$00@std@@QAE@U_Zero_then_variadic_args_t@1@AAPAVScreenList@BookEngine@@@Z
	??$?0AAU?$equal_to@I@std@@M@?$_Compressed_pair@U?$equal_to@I@std@@M$00@std@@QAE@U_One_then_variadic_args_t@1@AAU?$equal_to@I@1@$$QAM@Z
	??$?0AAU?$hash@I@std@@U_One_then_variadic_args_t@1@AAU?$equal_to@I@1@M@?$_Compressed_pair@U?$hash@I@std@@V?$_Compressed_pair@U?$equal_to@I@std@@M$00@2@$00@std@@QAE@U_One_then_variadic_args_t@1@AAU?$hash@I@1@$$QAU21@AAU?$equal_to@I@1@$$QAM@Z
	??$?0AAV?$_List_iterator@V?$_List_val@U?$_List_simple_types@U?$pair@$$CBI_N@std@@@std@@@std@@@std@@_N$0A@@?$pair@V?$_List_iterator@V?$_List_val@U?$_List_simple_types@U?$pair@$$CBI_N@std@@@std@@@std@@@std@@_N@std@@QAE@AAV?$_List_iterator@V?$_List_val@U?$_List_simple_types@U?$pair@$$CBI_N@std@@@std@@@std@@@1@$$QA_N@Z
	??$?0AAV?$_Tree_iterator@V?$_Tree_val@U?$_Tree_simple_types@U?$pair@$$CBV?$basic_string@DU?$char_traits@D@std@@V?$allocator@D@2@@std@@PAUMix_Chunk@@@std@@@std@@@std@@@std@@_N$0A@@?$pair@V?$_Tree_iterator@V?$_Tree_val@U?$_Tree_simple_types@U?$pair@$$CBV?$basic_string@DU?$char_traits@D@std@@V?$allocator@D@2@@std@@PAUMix_Chunk@@@std@@@std@@@std@@@std@@_N@std@@QAE@AAV?$_Tree_iterator@V?$_Tree_val@U?$_Tree_simple_types@U?$pair@$$CBV?$basic_string@DU?$char_traits@D@std@@V?$allocator@D@2@@std@@PAUMix_Chunk@@@std@@@std@@@std@@@1@$$QA_N@Z
	??$?0AAV?$_Tree_iterator@V?$_Tree_val@U?$_Tree_simple_types@U?$pair@$$CBV?$basic_string@DU?$char_traits@D@std@@V?$allocator@D@2@@std@@PAU_Mix_Music@@@std@@@std@@@std@@@std@@_N$0A@@?$pair@V?$_Tree_iterator@V?$_Tree_val@U?$_Tree_simple_types@U?$pair@$$CBV?$basic_string@DU?$char_traits@D@std@@V?$allocator@D@2@@std@@PAU_Mix_Music@@@std@@@std@@@std@@@std@@_N@std@@QAE@AAV?$_Tree_iterator@V?$_Tree_val@U?$_Tree_simple_types@U?$pair@$$CBV?$basic_string@DU?$char_traits@D@std@@V?$allocator@D@2@@std@@PAU_Mix_Music@@@std@@@std@@@std@@@1@$$QA_N@Z
	??$?0AAV?$_Tree_iterator@V?$_Tree_val@U?$_Tree_simple_types@U?$pair@$$CBV?$basic_string@DU?$char_traits@D@std@@V?$allocator@D@2@@std@@UGLTexture@BookEngine@@@std@@@std@@@std@@@std@@_N$0A@@?$pair@V?$_Tree_iterator@V?$_Tree_val@U?$_Tree_simple_types@U?$pair@$$CBV?$basic_string@DU?$char_traits@D@std@@V?$allocator@D@2@@std@@UGLTexture@BookEngine@@@std@@@std@@@std@@@std@@_N@std@@QAE@AAV?$_Tree_iterator@V?$_Tree_val@U?$_Tree_simple_types@U?$pair@$$CBV?$basic_string@DU?$char_traits@D@std@@V?$allocator@D@2@@std@@UGLTexture@BookEngine@@@std@@@std@@@std@@@1@$$QA_N@Z
	??$?0AAV?$basic_string@DU?$char_traits@D@std@@V?$allocator@D@2@@std@@AAUGLTexture@BookEngine@@$0A@@?$pair@V?$basic_string@DU?$char_traits@D@std@@V?$allocator@D@2@@std@@UGLTexture@BookEngine@@@std@@QAE@AAV?$basic_string@DU?$char_traits@D@std@@V?$allocator@D@2@@1@AAUGLTexture@BookEngine@@@Z
	??$?0ABI$$Z$$V@?$pair@$$CBI_N@std@@QAE@Upiecewise_construct_t@1@V?$tuple@ABI@1@V?$tuple@$$V@1@@Z
	??$?0ABI$0A@@?$tuple@ABI@std@@QAE@ABI@Z
	??$?0ABI@?$_Tuple_val@ABI@std@@QAE@ABI@Z
	??$?0ABU?$less@V?$basic_string@DU?$char_traits@D@std@@V?$allocator@D@2@@std@@@std@@U_Zero_then_variadic_args_t@1@@?$_Compressed_pair@U?$less@V?$basic_string@DU?$char_traits@D@std@@V?$allocator@D@2@@std@@@std@@V?$_Compressed_pair@V?$allocator@U?$_Tree_node@U?$pair@$$CBV?$basic_string@DU?$char_traits@D@std@@V?$allocator@D@2@@std@@PAUMix_Chunk@@@std@@PAX@std@@@std@@V?$_Tree_val@U?$_Tree_simple_types@U?$pair@$$CBV?$basic_string@DU?$char_traits@D@std@@V?$allocator@D@2@@std@@PAUMix_Chunk@@@std@@@std@@@2@$00@2@$00@std@@QAE@U_One_then_variadic_args_t@1@ABU?$less@V?$basic_string@DU?$char_traits@D@std@@V?$allocator@D@2@@std@@@1@$$QAU_Zero_then_variadic_args_t@1@@Z
	??$?0ABU?$less@V?$basic_string@DU?$char_traits@D@std@@V?$allocator@D@2@@std@@@std@@U_Zero_then_variadic_args_t@1@@?$_Compressed_pair@U?$less@V?$basic_string@DU?$char_traits@D@std@@V?$allocator@D@2@@std@@@std@@V?$_Compressed_pair@V?$allocator@U?$_Tree_node@U?$pair@$$CBV?$basic_string@DU?$char_traits@D@std@@V?$allocator@D@2@@std@@PAU_Mix_Music@@@std@@PAX@std@@@std@@V?$_Tree_val@U?$_Tree_simple_types@U?$pair@$$CBV?$basic_string@DU?$char_traits@D@std@@V?$allocator@D@2@@std@@PAU_Mix_Music@@@std@@@std@@@2@$00@2@$00@std@@QAE@U_One_then_variadic_args_t@1@ABU?$less@V?$basic_string@DU?$char_traits@D@std@@V?$allocator@D@2@@std@@@1@$$QAU_Zero_then_variadic_args_t@1@@Z
	??$?0ABU?$less@V?$basic_string@DU?$char_traits@D@std@@V?$allocator@D@2@@std@@@std@@U_Zero_then_variadic_args_t@1@@?$_Compressed_pair@U?$less@V?$basic_string@DU?$char_traits@D@std@@V?$allocator@D@2@@std@@@std@@V?$_Compressed_pair@V?$allocator@U?$_Tree_node@U?$pair@$$CBV?$basic_string@DU?$char_traits@D@std@@V?$allocator@D@2@@std@@UGLTexture@BookEngine@@@std@@PAX@std@@@std@@V?$_Tree_val@U?$_Tree_simple_types@U?$pair@$$CBV?$basic_string@DU?$char_traits@D@std@@V?$allocator@D@2@@std@@UGLTexture@BookEngine@@@std@@@std@@@2@$00@2@$00@std@@QAE@U_One_then_variadic_args_t@1@ABU?$less@V?$basic_string@DU?$char_traits@D@std@@V?$allocator@D@2@@std@@@1@$$QAU_Zero_then_variadic_args_t@1@@Z
	??$?0ABV?$allocator@D@std@@$$V@?$_Compressed_pair@V?$allocator@D@std@@V?$_String_val@U?$_Simple_types@D@std@@@2@$00@std@@QAE@U_One_then_variadic_args_t@1@ABV?$allocator@D@1@@Z
	??$?0ABV?$allocator@D@std@@$$V@?$_Compressed_pair@V?$allocator@D@std@@V?$_Vector_val@U?$_Simple_types@D@std@@@2@$00@std@@QAE@U_One_then_variadic_args_t@1@ABV?$allocator@D@1@@Z
	??$?0ABV?$allocator@D@std@@X@?$_String_alloc@U?$_String_base_types@DV?$allocator@D@std@@@std@@@std@@QAE@ABV?$allocator@D@1@@Z
	??$?0ABV?$allocator@D@std@@X@?$_Vector_alloc@U?$_Vec_base_types@DV?$allocator@D@std@@@std@@@std@@QAE@ABV?$allocator@D@1@@Z
	??$?0ABV?$allocator@E@std@@$$V@?$_Compressed_pair@V?$allocator@E@std@@V?$_Vector_val@U?$_Simple_types@E@std@@@2@$00@std@@QAE@U_One_then_variadic_args_t@1@ABV?$allocator@E@1@@Z
	??$?0ABV?$allocator@E@std@@X@?$_Vector_alloc@U?$_Vec_base_types@EV?$allocator@E@std@@@std@@@std@@QAE@ABV?$allocator@E@1@@Z
	??$?0ABV?$allocator@K@std@@$$V@?$_Compressed_pair@V?$allocator@K@std@@V?$_Vector_val@U?$_Simple_types@K@std@@@2@$00@std@@QAE@U_One_then_variadic_args_t@1@ABV?$allocator@K@1@@Z
	??$?0ABV?$allocator@K@std@@X@?$_Vector_alloc@U?$_Vec_base_types@KV?$allocator@K@std@@@std@@@std@@QAE@ABV?$allocator@K@1@@Z
	??$?0ABV?$allocator@U?$pair@$$CBI_N@std@@@std@@$$V@?$_Compressed_pair@V?$allocator@U?$_List_node@U?$pair@$$CBI_N@std@@PAX@std@@@std@@V?$_List_val@U?$_List_simple_types@U?$pair@$$CBI_N@std@@@std@@@2@$00@std@@QAE@U_One_then_variadic_args_t@1@ABV?$allocator@U?$pair@$$CBI_N@std@@@1@@Z
	??$?0ABV?$allocator@U?$pair@$$CBI_N@std@@@std@@X@?$_List_alloc@U?$_List_base_types@U?$pair@$$CBI_N@std@@V?$allocator@U?$pair@$$CBI_N@std@@@2@@std@@@std@@QAE@ABV?$allocator@U?$pair@$$CBI_N@std@@@1@@Z
	??$?0ABV?$allocator@U?$pair@$$CBI_N@std@@@std@@X@?$_List_buy@U?$pair@$$CBI_N@std@@V?$allocator@U?$pair@$$CBI_N@std@@@2@@std@@QAE@ABV?$allocator@U?$pair@$$CBI_N@std@@@1@@Z
	??$?0ABV?$allocator@V?$_List_unchecked_iterator@V?$_List_val@U?$_List_simple_types@U?$pair@$$CBI_N@std@@@std@@@std@@@std@@@std@@$$V@?$_Compressed_pair@V?$allocator@V?$_List_unchecked_iterator@V?$_List_val@U?$_List_simple_types@U?$pair@$$CBI_N@std@@@std@@@std@@@std@@@std@@V?$_Vector_val@U?$_Simple_types@V?$_List_unchecked_iterator@V?$_List_val@U?$_List_simple_types@U?$pair@$$CBI_N@std@@@std@@@std@@@std@@@std@@@2@$00@std@@QAE@U_One_then_variadic_args_t@1@ABV?$allocator@V?$_List_unchecked_iterator@V?$_List_val@U?$_List_simple_types@U?$pair@$$CBI_N@std@@@std@@@std@@@std@@@1@@Z
	??$?0ABV?$allocator@V?$_List_unchecked_iterator@V?$_List_val@U?$_List_simple_types@U?$pair@$$CBI_N@std@@@std@@@std@@@std@@@std@@X@?$_Vector_alloc@U?$_Vec_base_types@V?$_List_unchecked_iterator@V?$_List_val@U?$_List_simple_types@U?$pair@$$CBI_N@std@@@std@@@std@@@std@@V?$allocator@V?$_List_unchecked_iterator@V?$_List_val@U?$_List_simple_types@U?$pair@$$CBI_N@std@@@std@@@std@@@std@@@2@@std@@@std@@QAE@ABV?$allocator@V?$_List_unchecked_iterator@V?$_List_val@U?$_List_simple_types@U?$pair@$$CBI_N@std@@@std@@@std@@@std@@@1@@Z
	??$?0ABV?$basic_string@DU?$char_traits@D@std@@V?$allocator@D@2@@std@@$$Z$$V@?$pair@$$CBV?$basic_string@DU?$char_traits@D@std@@V?$allocator@D@2@@std@@PAUMix_Chunk@@@std@@QAE@Upiecewise_construct_t@1@V?$tuple@ABV?$basic_string@DU?$char_traits@D@std@@V?$allocator@D@2@@std@@@1@V?$tuple@$$V@1@@Z
	??$?0ABV?$basic_string@DU?$char_traits@D@std@@V?$allocator@D@2@@std@@$$Z$$V@?$pair@$$CBV?$basic_string@DU?$char_traits@D@std@@V?$allocator@D@2@@std@@PAU_Mix_Music@@@std@@QAE@Upiecewise_construct_t@1@V?$tuple@ABV?$basic_string@DU?$char_traits@D@std@@V?$allocator@D@2@@std@@@1@V?$tuple@$$V@1@@Z
	??$?0ABV?$basic_string@DU?$char_traits@D@std@@V?$allocator@D@2@@std@@$0A@@?$tuple@ABV?$basic_string@DU?$char_traits@D@std@@V?$allocator@D@2@@std@@@std@@QAE@ABV?$basic_string@DU?$char_traits@D@std@@V?$allocator@D@2@@1@@Z
	??$?0ABV?$basic_string@DU?$char_traits@D@std@@V?$allocator@D@2@@std@@@?$_Tuple_val@ABV?$basic_string@DU?$char_traits@D@std@@V?$allocator@D@2@@std@@@std@@QAE@ABV?$basic_string@DU?$char_traits@D@std@@V?$allocator@D@2@@1@@Z
	??$?0D@?$allocator@U_Container_proxy@std@@@std@@QAE@ABV?$allocator@D@1@@Z
	??$?0E@?$allocator@U_Container_proxy@std@@@std@@QAE@ABV?$allocator@E@1@@Z
	??$?0H@?$allocator@U_Container_proxy@std@@@std@@QAE@ABV?$allocator@H@1@@Z
	??$?0HH@?$tvec2@M$0A@@glm@@QAE@ABH0@Z
	??$?0HHHH@?$tvec4@M$0A@@glm@@QAE@HHHH@Z
	??$?0HHHM@?$tvec4@M$0A@@glm@@QAE@HHHM@Z
	??$?0HHMH@?$tvec4@M$0A@@glm@@QAE@HHMH@Z
	??$?0HHMM@?$tvec4@M$0A@@glm@@QAE@HHMM@Z
	??$?0HMHH@?$tvec4@M$0A@@glm@@QAE@HMHH@Z
	??$?0I@?$allocator@U_Container_proxy@std@@@std@@QAE@ABV?$allocator@I@1@@Z
	??$?0K@?$allocator@U_Container_proxy@std@@@std@@QAE@ABV?$allocator@K@1@@Z
	??$?0MHHH@?$tvec4@M$0A@@glm@@QAE@MHHH@Z
	??$?0MHM@?$tvec3@M$0A@@glm@@QAE@ABMABH0@Z
	??$?0MM$0A@@?$tvec4@M$0A@@glm@@QAE@ABU?$tvec2@M$0A@@1@0@Z
	??$?0NN@?$tvec2@M$0A@@glm@@QAE@ABN0@Z
	??$?0NNN@?$tvec3@M$0A@@glm@@QAE@ABN00@Z
	??$?0PADX@?$basic_string@DU?$char_traits@D@std@@V?$allocator@D@2@@std@@QAE@PAD0ABV?$allocator@D@1@@Z
	??$?0PAPAVGlyph@BookEngine@@@?$_Temporary_range@PAVGlyph@BookEngine@@@std@@QAE@AAU?$_Temporary_buffer@PAVGlyph@BookEngine@@@1@QAPAVGlyph@BookEngine@@1H@Z
	??$?0PAVGlyph@BookEngine@@@?$allocator@U_Container_proxy@std@@@std@@QAE@ABV?$allocator@PAVGlyph@BookEngine@@@1@@Z
	??$?0PAVIScreen@BookEngine@@@?$allocator@U_Container_proxy@std@@@std@@QAE@ABV?$allocator@PAVIScreen@BookEngine@@@1@@Z
	??$?0PAVParticleBatch2D@BookEngine@@@?$allocator@U_Container_proxy@std@@@std@@QAE@ABV?$allocator@PAVParticleBatch2D@BookEngine@@@1@@Z
	??$?0PAVScreenList@BookEngine@@@?$_Unique_ptr_base@VScreenList@BookEngine@@U?$default_delete@VScreenList@BookEngine@@@std@@@std@@QAE@PAVScreenList@BookEngine@@@Z
	??$?0U?$_List_node@U?$pair@$$CBI_N@std@@PAX@std@@@?$allocator@U_Container_proxy@std@@@std@@QAE@ABV?$allocator@U?$_List_node@U?$pair@$$CBI_N@std@@PAX@std@@@1@@Z
	??$?0U?$_Tree_node@U?$pair@$$CBV?$basic_string@DU?$char_traits@D@std@@V?$allocator@D@2@@std@@PAUMix_Chunk@@@std@@PAX@std@@@?$allocator@U_Container_proxy@std@@@std@@QAE@ABV?$allocator@U?$_Tree_node@U?$pair@$$CBV?$basic_string@DU?$char_traits@D@std@@V?$allocator@D@2@@std@@PAUMix_Chunk@@@std@@PAX@std@@@1@@Z
	??$?0U?$_Tree_node@U?$pair@$$CBV?$basic_string@DU?$char_traits@D@std@@V?$allocator@D@2@@std@@PAU_Mix_Music@@@std@@PAX@std@@@?$allocator@U_Container_proxy@std@@@std@@QAE@ABV?$allocator@U?$_Tree_node@U?$pair@$$CBV?$basic_string@DU?$char_traits@D@std@@V?$allocator@D@2@@std@@PAU_Mix_Music@@@std@@PAX@std@@@1@@Z
	??$?0U?$_Tree_node@U?$pair@$$CBV?$basic_string@DU?$char_traits@D@std@@V?$allocator@D@2@@std@@UGLTexture@BookEngine@@@std@@PAX@std@@@?$allocator@U_Container_proxy@std@@@std@@QAE@ABV?$allocator@U?$_Tree_node@U?$pair@$$CBV?$basic_string@DU?$char_traits@D@std@@V?$allocator@D@2@@std@@UGLTexture@BookEngine@@@std@@PAX@std@@@1@@Z
	??$?0U?$default_delete@VScreenList@BookEngine@@@std@@$0A@@?$unique_ptr@VScreenList@BookEngine@@U?$default_delete@VScreenList@BookEngine@@@std@@@std@@QAE@$$T@Z
	??$?0U?$default_delete@VScreenList@BookEngine@@@std@@$0A@@?$unique_ptr@VScreenList@BookEngine@@U?$default_delete@VScreenList@BookEngine@@@std@@@std@@QAE@PAVScreenList@BookEngine@@@Z
	??$?0U?$integral_constant@_N$00@std@@@_Unused_parameter@std@@QAE@$$QAU?$integral_constant@_N$00@1@@Z
	??$?0U?$pair@$$CBI_N@std@@@?$allocator@U?$_List_node@U?$pair@$$CBI_N@std@@PAX@std@@@std@@QAE@ABV?$allocator@U?$pair@$$CBI_N@std@@@1@@Z
	??$?0U?$pair@$$CBI_N@std@@@?$allocator@V?$_List_unchecked_iterator@V?$_List_val@U?$_List_simple_types@U?$pair@$$CBI_N@std@@@std@@@std@@@std@@@std@@QAE@ABV?$allocator@U?$pair@$$CBI_N@std@@@1@@Z
	??$?0U?$tvec2@M$0A@@glm@@@?$allocator@U_Container_proxy@std@@@std@@QAE@ABV?$allocator@U?$tvec2@M$0A@@glm@@@1@@Z
	??$?0U?$tvec3@M$0A@@glm@@@?$allocator@U_Container_proxy@std@@@std@@QAE@ABV?$allocator@U?$tvec3@M$0A@@glm@@@1@@Z
	??$?0U?$tvec4@M$0A@@glm@@@?$allocator@U_Container_proxy@std@@@std@@QAE@ABV?$allocator@U?$tvec4@M$0A@@glm@@@1@@Z
	??$?0UVertex2D@BookEngine@@@?$allocator@U_Container_proxy@std@@@std@@QAE@ABV?$allocator@UVertex2D@BookEngine@@@1@@Z
	??$?0U_Exact_args_t@std@@$0A@@?$tuple@$$V@std@@QAE@U_Exact_args_t@1@@Z
	??$?0U_Exact_args_t@std@@ABI$$V$0A@@?$tuple@ABI@std@@QAE@U_Exact_args_t@1@ABI@Z
	??$?0U_Exact_args_t@std@@ABV?$basic_string@DU?$char_traits@D@std@@V?$allocator@D@2@@1@$$V$0A@@?$tuple@ABV?$basic_string@DU?$char_traits@D@std@@V?$allocator@D@2@@std@@@std@@QAE@U_Exact_args_t@1@ABV?$basic_string@DU?$char_traits@D@std@@V?$allocator@D@2@@1@@Z
	??$?0V?$_List_iterator@V?$_List_val@U?$_List_simple_types@U?$pair@$$CBI_N@std@@@std@@@std@@@std@@_N$0A@@?$pair@V?$_List_iterator@V?$_List_val@U?$_List_simple_types@U?$pair@$$CBI_N@std@@@std@@@std@@@std@@_N@std@@QAE@$$QAV?$_List_iterator@V?$_List_val@U?$_List_simple_types@U?$pair@$$CBI_N@std@@@std@@@std@@@1@$$QA_N@Z
	??$?0V?$_List_unchecked_iterator@V?$_List_val@U?$_List_simple_types@U?$pair@$$CBI_N@std@@@std@@@std@@@std@@@?$allocator@U_Container_proxy@std@@@std@@QAE@ABV?$allocator@V?$_List_unchecked_iterator@V?$_List_val@U?$_List_simple_types@U?$pair@$$CBI_N@std@@@std@@@std@@@std@@@1@@Z
	??$?0V?$_Tree_iterator@V?$_Tree_val@U?$_Tree_simple_types@U?$pair@$$CBV?$basic_string@DU?$char_traits@D@std@@V?$allocator@D@2@@std@@PAUMix_Chunk@@@std@@@std@@@std@@@std@@_N$0A@@?$pair@V?$_Tree_iterator@V?$_Tree_val@U?$_Tree_simple_types@U?$pair@$$CBV?$basic_string@DU?$char_traits@D@std@@V?$allocator@D@2@@std@@PAUMix_Chunk@@@std@@@std@@@std@@@std@@_N@std@@QAE@$$QAV?$_Tree_iterator@V?$_Tree_val@U?$_Tree_simple_types@U?$pair@$$CBV?$basic_string@DU?$char_traits@D@std@@V?$allocator@D@2@@std@@PAUMix_Chunk@@@std@@@std@@@std@@@1@$$QA_N@Z
	??$?0V?$_Tree_iterator@V?$_Tree_val@U?$_Tree_simple_types@U?$pair@$$CBV?$basic_string@DU?$char_traits@D@std@@V?$allocator@D@2@@std@@PAU_Mix_Music@@@std@@@std@@@std@@@std@@_N$0A@@?$pair@V?$_Tree_iterator@V?$_Tree_val@U?$_Tree_simple_types@U?$pair@$$CBV?$basic_string@DU?$char_traits@D@std@@V?$allocator@D@2@@std@@PAU_Mix_Music@@@std@@@std@@@std@@@std@@_N@std@@QAE@$$QAV?$_Tree_iterator@V?$_Tree_val@U?$_Tree_simple_types@U?$pair@$$CBV?$basic_string@DU?$char_traits@D@std@@V?$allocator@D@2@@std@@PAU_Mix_Music@@@std@@@std@@@std@@@1@$$QA_N@Z
	??$?0V?$_Tree_iterator@V?$_Tree_val@U?$_Tree_simple_types@U?$pair@$$CBV?$basic_string@DU?$char_traits@D@std@@V?$allocator@D@2@@std@@UGLTexture@BookEngine@@@std@@@std@@@std@@@std@@_N$0A@@?$pair@V?$_Tree_iterator@V?$_Tree_val@U?$_Tree_simple_types@U?$pair@$$CBV?$basic_string@DU?$char_traits@D@std@@V?$allocator@D@2@@std@@UGLTexture@BookEngine@@@std@@@std@@@std@@@std@@_N@std@@QAE@$$QAV?$_Tree_iterator@V?$_Tree_val@U?$_Tree_simple_types@U?$pair@$$CBV?$basic_string@DU?$char_traits@D@std@@V?$allocator@D@2@@std@@UGLTexture@BookEngine@@@std@@@std@@@std@@@1@$$QA_N@Z
	??$?0V?$allocator@D@std@@$$V@?$_Compressed_pair@V?$allocator@D@std@@V?$_String_val@U?$_Simple_types@D@std@@@2@$00@std@@QAE@U_One_then_variadic_args_t@1@$$QAV?$allocator@D@1@@Z
	??$?0V?$allocator@D@std@@X@?$_String_alloc@U?$_String_base_types@DV?$allocator@D@std@@@std@@@std@@QAE@$$QAV?$allocator@D@1@@Z
	??$?0V?$allocator@E@std@@$$V@?$_Compressed_pair@V?$allocator@E@std@@V?$_Vector_val@U?$_Simple_types@E@std@@@2@$00@std@@QAE@U_One_then_variadic_args_t@1@$$QAV?$allocator@E@1@@Z
	??$?0V?$allocator@E@std@@X@?$_Vector_alloc@U?$_Vec_base_types@EV?$allocator@E@std@@@std@@@std@@QAE@$$QAV?$allocator@E@1@@Z
	??$?0V?$basic_string@DU?$char_traits@D@std@@V?$allocator@D@2@@std@@UGLTexture@BookEngine@@$0A@@?$pair@$$CBV?$basic_string@DU?$char_traits@D@std@@V?$allocator@D@2@@std@@UGLTexture@BookEngine@@@std@@QAE@$$QAU?$pair@V?$basic_string@DU?$char_traits@D@std@@V?$allocator@D@2@@std@@UGLTexture@BookEngine@@@1@@Z
	??$?0V?$tuple@ABI@std@@V?$tuple@$$V@1@$0A@$$Z$S@?$pair@$$CBI_N@std@@QAE@AAV?$tuple@ABI@1@AAV?$tuple@$$V@1@U?$integer_sequence@I$0A@@1@U?$integer_sequence@I$S@1@@Z
	??$?0V?$tuple@ABV?$basic_string@DU?$char_traits@D@std@@V?$allocator@D@2@@std@@@std@@V?$tuple@$$V@1@$0A@$$Z$S@?$pair@$$CBV?$basic_string@DU?$char_traits@D@std@@V?$allocator@D@2@@std@@PAUMix_Chunk@@@std@@QAE@AAV?$tuple@ABV?$basic_string@DU?$char_traits@D@std@@V?$allocator@D@2@@std@@@1@AAV?$tuple@$$V@1@U?$integer_sequence@I$0A@@1@U?$integer_sequence@I$S@1@@Z
	??$?0V?$tuple@ABV?$basic_string@DU?$char_traits@D@std@@V?$allocator@D@2@@std@@@std@@V?$tuple@$$V@1@$0A@$$Z$S@?$pair@$$CBV?$basic_string@DU?$char_traits@D@std@@V?$allocator@D@2@@std@@PAU_Mix_Music@@@std@@QAE@AAV?$tuple@ABV?$basic_string@DU?$char_traits@D@std@@V?$allocator@D@2@@std@@@1@AAV?$tuple@$$V@1@U?$integer_sequence@I$0A@@1@U?$integer_sequence@I$S@1@@Z
	??$?0VBatchRenderr@BookEngine@@@?$allocator@U_Container_proxy@std@@@std@@QAE@ABV?$allocator@VBatchRenderr@BookEngine@@@1@@Z
	??$?0VGlyph@BookEngine@@@?$allocator@U_Container_proxy@std@@@std@@QAE@ABV?$allocator@VGlyph@BookEngine@@@1@@Z
	??$?5DU?$char_traits@D@std@@@std@@YAAAV?$basic_istream@DU?$char_traits@D@std@@@0@AAV10@AAD@Z
	??$?6U?$char_traits@D@std@@@std@@YAAAV?$basic_ostream@DU?$char_traits@D@std@@@0@AAV10@PBD@Z
	??$?8DU?$char_traits@D@std@@V?$allocator@D@1@@std@@YA_NABV?$basic_string@DU?$char_traits@D@std@@V?$allocator@D@2@@0@QBD@Z
	??$?DM$0A@@glm@@YA?AU?$tmat4x4@M$0A@@0@ABU10@0@Z
	??$?DM$0A@@glm@@YA?AU?$tvec2@M$0A@@0@ABU10@0@Z
	??$?DM$0A@@glm@@YA?AU?$tvec3@M$0A@@0@ABU10@0@Z
	??$?DM$0A@@glm@@YA?AU?$tvec3@M$0A@@0@ABU10@ABM@Z
	??$?DM$0A@@glm@@YA?AU?$tvec4@M$0A@@0@ABU10@M@Z
	??$?GM$0A@@glm@@YA?AU?$tvec2@M$0A@@0@ABU10@0@Z
	??$?GM$0A@@glm@@YA?AU?$tvec3@M$0A@@0@ABU10@0@Z
	??$?HDU?$char_traits@D@std@@V?$allocator@D@1@@std@@YA?AV?$basic_string@DU?$char_traits@D@std@@V?$allocator@D@2@@0@$$QAV10@QBD@Z
	??$?HDU?$char_traits@D@std@@V?$allocator@D@1@@std@@YA?AV?$basic_string@DU?$char_traits@D@std@@V?$allocator@D@2@@0@ABV10@QBD@Z
	??$?HDU?$char_traits@D@std@@V?$allocator@D@1@@std@@YA?AV?$basic_string@DU?$char_traits@D@std@@V?$allocator@D@2@@0@QBD$$QAV10@@Z
	??$?HDU?$char_traits@D@std@@V?$allocator@D@1@@std@@YA?AV?$basic_string@DU?$char_traits@D@std@@V?$allocator@D@2@@0@QBDABV10@@Z
	??$?HM$0A@@glm@@YA?AU?$tvec2@M$0A@@0@ABU10@0@Z
	??$?HM$0A@@glm@@YA?AU?$tvec3@M$0A@@0@ABU10@0@Z
	??$?HM$0A@@glm@@YA?AU?$tvec4@M$0A@@0@ABU10@0@Z
	??$?KM$0A@@glm@@YA?AU?$tvec2@M$0A@@0@ABU10@ABM@Z
	??$?MDU?$char_traits@D@std@@V?$allocator@D@1@@std@@YA_NABV?$basic_string@DU?$char_traits@D@std@@V?$allocator@D@2@@0@0@Z
	??$?YM@?$tvec2@M$0A@@glm@@QAEAAU01@ABU01@@Z
	??$?ZM@?$tvec2@M$0A@@glm@@QAEAAU01@ABU01@@Z
	??$?_0M@?$tvec2@M$0A@@glm@@QAEAAU01@M@Z
	??$_Advance1@PAPAVGlyph@BookEngine@@H@std@@YAXAAPAPAVGlyph@BookEngine@@HUrandom_access_iterator_tag@0@@Z
	??$_Allocate@U?$_Default_allocate_traits@$00@std@@@std@@YAPAXIII@Z
	??$_Buffered_inplace_merge_divide_and_conquer2@PAPAVGlyph@BookEngine@@HPAV12@P6A_NPAV12@0@Z@std@@YAXPAPAVGlyph@BookEngine@@00HHAAU?$_Temporary_buffer@PAVGlyph@BookEngine@@@0@P6A_NPAV12@2@Z00HH@Z
	??$_Buffered_inplace_merge_divide_and_conquer@PAPAVGlyph@BookEngine@@HPAV12@P6A_NPAV12@0@Z@std@@YAXPAPAVGlyph@BookEngine@@00HHAAU?$_Temporary_buffer@PAVGlyph@BookEngine@@@0@P6A_NPAV12@2@Z@Z
	??$_Buffered_inplace_merge_unchecked@PAPAVGlyph@BookEngine@@HPAV12@P6A_NPAV12@0@Z@std@@YAXPAPAVGlyph@BookEngine@@00HHAAU?$_Temporary_buffer@PAVGlyph@BookEngine@@@0@P6A_NPAV12@2@Z@Z
	??$_Buffered_inplace_merge_unchecked_impl@PAPAVGlyph@BookEngine@@HPAV12@P6A_NPAV12@0@Z@std@@YAXPAPAVGlyph@BookEngine@@00HHAAU?$_Temporary_buffer@PAVGlyph@BookEngine@@@0@P6A_NPAV12@2@Z@Z
	??$_Buffered_merge_sort_unchecked@PAPAVGlyph@BookEngine@@HPAV12@P6A_NPAV12@0@Z@std@@YAXPAPAVGlyph@BookEngine@@0HAAU?$_Temporary_buffer@PAVGlyph@BookEngine@@@0@P6A_NPAV12@2@Z@Z
	??$_Buffered_merge_unchecked@PAPAVGlyph@BookEngine@@PAPAV12@PAPAV12@P6A_NPAV12@0@Z@std@@YAPAPAVGlyph@BookEngine@@PAPAV12@0000P6A_NPAV12@1@Z@Z
	??$_Buffered_merge_unchecked@PAPAVGlyph@BookEngine@@PAPAV12@V?$back_insert_iterator@U?$_Temporary_range@PAVGlyph@BookEngine@@@std@@@std@@P6A_NPAV12@0@Z@std@@YA?AV?$back_insert_iterator@U?$_Temporary_range@PAVGlyph@BookEngine@@@std@@@0@PAPAVGlyph@BookEngine@@000V10@P6A_NPAV23@2@Z@Z
	??$_Buffered_rotate_unchecked@PAPAVGlyph@BookEngine@@HPAV12@@std@@YAPAPAVGlyph@BookEngine@@QAPAV12@00HHAAU?$_Temporary_buffer@PAVGlyph@BookEngine@@@0@@Z
	??$_Buy_if_not_node@AAU?$pair@$$CBI_N@std@@@?$_Hash@V?$_Umap_traits@I_NV?$_Uhash_compare@IU?$hash@I@std@@U?$equal_to@I@2@@std@@V?$allocator@U?$pair@$$CBI_N@std@@@2@$0A@@std@@@std@@IAE?AV?$_List_unchecked_iterator@V?$_List_val@U?$_List_simple_types@U?$pair@$$CBI_N@std@@@std@@@std@@@1@AAU?$pair@$$CBI_N@1@V21@@Z
	??$_Buy_if_not_node@AAU?$pair@$$CBV?$basic_string@DU?$char_traits@D@std@@V?$allocator@D@2@@std@@PAUMix_Chunk@@@std@@@?$_Tree@V?$_Tmap_traits@V?$basic_string@DU?$char_traits@D@std@@V?$allocator@D@2@@std@@PAUMix_Chunk@@U?$less@V?$basic_string@DU?$char_traits@D@std@@V?$allocator@D@2@@std@@@2@V?$allocator@U?$pair@$$CBV?$basic_string@DU?$char_traits@D@std@@V?$allocator@D@2@@std@@PAUMix_Chunk@@@std@@@2@$0A@@std@@@std@@IAEPAU?$_Tree_node@U?$pair@$$CBV?$basic_string@DU?$char_traits@D@std@@V?$allocator@D@2@@std@@PAUMix_Chunk@@@std@@PAX@1@PAU21@AAU?$pair@$$CBV?$basic_string@DU?$char_traits@D@std@@V?$allocator@D@2@@std@@PAUMix_Chunk@@@1@@Z
	??$_Buy_if_not_node@AAU?$pair@$$CBV?$basic_string@DU?$char_traits@D@std@@V?$allocator@D@2@@std@@PAU_Mix_Music@@@std@@@?$_Tree@V?$_Tmap_traits@V?$basic_string@DU?$char_traits@D@std@@V?$allocator@D@2@@std@@PAU_Mix_Music@@U?$less@V?$basic_string@DU?$char_traits@D@std@@V?$allocator@D@2@@std@@@2@V?$allocator@U?$pair@$$CBV?$basic_string@DU?$char_traits@D@std@@V?$allocator@D@2@@std@@PAU_Mix_Music@@@std@@@2@$0A@@std@@@std@@IAEPAU?$_Tree_node@U?$pair@$$CBV?$basic_string@DU?$char_traits@D@std@@V?$allocator@D@2@@std@@PAU_Mix_Music@@@std@@PAX@1@PAU21@AAU?$pair@$$CBV?$basic_string@DU?$char_traits@D@std@@V?$allocator@D@2@@std@@PAU_Mix_Music@@@1@@Z
	??$_Buy_if_not_node@AAU?$pair@$$CBV?$basic_string@DU?$char_traits@D@std@@V?$allocator@D@2@@std@@UGLTexture@BookEngine@@@std@@@?$_Tree@V?$_Tmap_traits@V?$basic_string@DU?$char_traits@D@std@@V?$allocator@D@2@@std@@UGLTexture@BookEngine@@U?$less@V?$basic_string@DU?$char_traits@D@std@@V?$allocator@D@2@@std@@@2@V?$allocator@U?$pair@$$CBV?$basic_string@DU?$char_traits@D@std@@V?$allocator@D@2@@std@@UGLTexture@BookEngine@@@std@@@2@$0A@@std@@@std@@IAEPAU?$_Tree_node@U?$pair@$$CBV?$basic_string@DU?$char_traits@D@std@@V?$allocator@D@2@@std@@UGLTexture@BookEngine@@@std@@PAX@1@PAU21@AAU?$pair@$$CBV?$basic_string@DU?$char_traits@D@std@@V?$allocator@D@2@@std@@UGLTexture@BookEngine@@@1@@Z
	??$_Buynode@ABUpiecewise_construct_t@std@@V?$tuple@ABI@2@V?$tuple@$$V@2@@?$_List_buy@U?$pair@$$CBI_N@std@@V?$allocator@U?$pair@$$CBI_N@std@@@2@@std@@QAEPAU?$_List_node@U?$pair@$$CBI_N@std@@PAX@1@PAU21@0ABUpiecewise_construct_t@1@$$QAV?$tuple@ABI@1@$$QAV?$tuple@$$V@1@@Z
	??$_Buynode@ABUpiecewise_construct_t@std@@V?$tuple@ABV?$basic_string@DU?$char_traits@D@std@@V?$allocator@D@2@@std@@@2@V?$tuple@$$V@2@@?$_Tree_comp_alloc@V?$_Tmap_traits@V?$basic_string@DU?$char_traits@D@std@@V?$allocator@D@2@@std@@PAUMix_Chunk@@U?$less@V?$basic_string@DU?$char_traits@D@std@@V?$allocator@D@2@@std@@@2@V?$allocator@U?$pair@$$CBV?$basic_string@DU?$char_traits@D@std@@V?$allocator@D@2@@std@@PAUMix_Chunk@@@std@@@2@$0A@@std@@@std@@QAEPAU?$_Tree_node@U?$pair@$$CBV?$basic_string@DU?$char_traits@D@std@@V?$allocator@D@2@@std@@PAUMix_Chunk@@@std@@PAX@1@ABUpiecewise_construct_t@1@$$QAV?$tuple@ABV?$basic_string@DU?$char_traits@D@std@@V?$allocator@D@2@@std@@@1@$$QAV?$tuple@$$V@1@@Z
	??$_Buynode@ABUpiecewise_construct_t@std@@V?$tuple@ABV?$basic_string@DU?$char_traits@D@std@@V?$allocator@D@2@@std@@@2@V?$tuple@$$V@2@@?$_Tree_comp_alloc@V?$_Tmap_traits@V?$basic_string@DU?$char_traits@D@std@@V?$allocator@D@2@@std@@PAU_Mix_Music@@U?$less@V?$basic_string@DU?$char_traits@D@std@@V?$allocator@D@2@@std@@@2@V?$allocator@U?$pair@$$CBV?$basic_string@DU?$char_traits@D@std@@V?$allocator@D@2@@std@@PAU_Mix_Music@@@std@@@2@$0A@@std@@@std@@QAEPAU?$_Tree_node@U?$pair@$$CBV?$basic_string@DU?$char_traits@D@std@@V?$allocator@D@2@@std@@PAU_Mix_Music@@@std@@PAX@1@ABUpiecewise_construct_t@1@$$QAV?$tuple@ABV?$basic_string@DU?$char_traits@D@std@@V?$allocator@D@2@@std@@@1@$$QAV?$tuple@$$V@1@@Z
	??$_Buynode@U?$pair@V?$basic_string@DU?$char_traits@D@std@@V?$allocator@D@2@@std@@UGLTexture@BookEngine@@@std@@@?$_Tree_comp_alloc@V?$_Tmap_traits@V?$basic_string@DU?$char_traits@D@std@@V?$allocator@D@2@@std@@UGLTexture@BookEngine@@U?$less@V?$basic_string@DU?$char_traits@D@std@@V?$allocator@D@2@@std@@@2@V?$allocator@U?$pair@$$CBV?$basic_string@DU?$char_traits@D@std@@V?$allocator@D@2@@std@@UGLTexture@BookEngine@@@std@@@2@$0A@@std@@@std@@QAEPAU?$_Tree_node@U?$pair@$$CBV?$basic_string@DU?$char_traits@D@std@@V?$allocator@D@2@@std@@UGLTexture@BookEngine@@@std@@PAX@1@$$QAU?$pair@V?$basic_string@DU?$char_traits@D@std@@V?$allocator@D@2@@std@@UGLTexture@BookEngine@@@1@@Z
	??$_Chunked_merge_unchecked@PAPAVGlyph@BookEngine@@PAPAV12@HP6A_NPAV12@0@Z@std@@YAXPAPAVGlyph@BookEngine@@00HHP6A_NPAV12@1@Z@Z
	??$_Chunked_merge_unchecked@PAPAVGlyph@BookEngine@@V?$back_insert_iterator@U?$_Temporary_range@PAVGlyph@BookEngine@@@std@@@std@@HP6A_NPAV12@0@Z@std@@YAXPAPAVGlyph@BookEngine@@0V?$back_insert_iterator@U?$_Temporary_range@PAVGlyph@BookEngine@@@std@@@0@HHP6A_NPAV12@2@Z@Z
	??$_Construct_in_place@PAVGlyph@BookEngine@@PAV12@@std@@YAXAAPAVGlyph@BookEngine@@$$QAPAV12@@Z
	??$_Convert_size@I@std@@YAII@Z
	??$_Copy_backward_memmove@PAEPAE@std@@YAPAEPAE00@Z
	??$_Copy_backward_memmove@PAPAVGlyph@BookEngine@@PAPAV12@@std@@YAPAPAVGlyph@BookEngine@@PAPAV12@00@Z
	??$_Copy_memmove@PAEPAE@std@@YAPAEPAE00@Z
	??$_Copy_memmove@PAHPAH@std@@YAPAHPAH00@Z
	??$_Copy_memmove@PAIPAI@std@@YAPAIPAI00@Z
	??$_Copy_memmove@PAKPAK@std@@YAPAKPAK00@Z
	??$_Copy_memmove@PAPAVGlyph@BookEngine@@PAPAV12@@std@@YAPAPAVGlyph@BookEngine@@PAPAV12@00@Z
	??$_Copy_memmove@PAPAVIScreen@BookEngine@@PAPAV12@@std@@YAPAPAVIScreen@BookEngine@@PAPAV12@00@Z
	??$_Copy_memmove@PAPAVParticleBatch2D@BookEngine@@PAPAV12@@std@@YAPAPAVParticleBatch2D@BookEngine@@PAPAV12@00@Z
	??$_Copy_memmove@PBEPAE@std@@YAPAEPBE0PAE@Z
	??$_Deallocate_plain@V?$allocator@U_Container_proxy@std@@@std@@$0A@@std@@YAXAAV?$allocator@U_Container_proxy@std@@@0@QAU_Container_proxy@0@@Z
	??$_Debug_lt_pred@AAP6A_NPAVGlyph@BookEngine@@0@ZAAPAV12@AAPAV12@@std@@YA_NAAP6A_NPAVGlyph@BookEngine@@0@ZAAPAV12@2PB_WI@Z
	??$_Debug_lt_pred@AAU?$less@V?$basic_string@DU?$char_traits@D@std@@V?$allocator@D@2@@std@@@std@@ABV?$basic_string@DU?$char_traits@D@std@@V?$allocator@D@2@@2@ABV32@@std@@YA_NAAU?$less@V?$basic_string@DU?$char_traits@D@std@@V?$allocator@D@2@@std@@@0@ABV?$basic_string@DU?$char_traits@D@std@@V?$allocator@D@2@@0@1PB_WI@Z
	??$_Debug_lt_pred@ABU?$less@V?$basic_string@DU?$char_traits@D@std@@V?$allocator@D@2@@std@@@std@@ABV?$basic_string@DU?$char_traits@D@std@@V?$allocator@D@2@@2@ABV32@@std@@YA_NABU?$less@V?$basic_string@DU?$char_traits@D@std@@V?$allocator@D@2@@std@@@0@ABV?$basic_string@DU?$char_traits@D@std@@V?$allocator@D@2@@0@1PB_WI@Z
	??$_Debug_range2@PAD@std@@YAXPAD0PB_WIUrandom_access_iterator_tag@0@@Z
	??$_Debug_range2@PBE@std@@YAXPBE0PB_WIUrandom_access_iterator_tag@0@@Z
	??$_Debug_range2@V?$_Vector_iterator@V?$_Vector_val@U?$_Simple_types@PAVGlyph@BookEngine@@@std@@@std@@@std@@@std@@YAXV?$_Vector_iterator@V?$_Vector_val@U?$_Simple_types@PAVGlyph@BookEngine@@@std@@@std@@@0@0PB_WIUrandom_access_iterator_tag@0@@Z
	??$_Debug_range@PAD@std@@YAXPAD0PB_WI@Z
	??$_Debug_range@PBE@std@@YAXPBE0PB_WI@Z
	??$_Debug_range@V?$_Vector_iterator@V?$_Vector_val@U?$_Simple_types@PAVGlyph@BookEngine@@@std@@@std@@@std@@@std@@YAXV?$_Vector_iterator@V?$_Vector_val@U?$_Simple_types@PAVGlyph@BookEngine@@@std@@@std@@@0@0PB_WI@Z
	??$_Destroy_range1@PAPAVGlyph@BookEngine@@@std@@YAXPAPAVGlyph@BookEngine@@0U?$integral_constant@_N$00@0@@Z
	??$_Destroy_range1@V?$allocator@D@std@@@std@@YAXPAD0AAV?$allocator@D@0@U?$integral_constant@_N$00@0@@Z
	??$_Destroy_range1@V?$allocator@E@std@@@std@@YAXPAE0AAV?$allocator@E@0@U?$integral_constant@_N$00@0@@Z
	??$_Destroy_range1@V?$allocator@H@std@@@std@@YAXPAH0AAV?$allocator@H@0@U?$integral_constant@_N$00@0@@Z
	??$_Destroy_range1@V?$allocator@I@std@@@std@@YAXPAI0AAV?$allocator@I@0@U?$integral_constant@_N$00@0@@Z
	??$_Destroy_range1@V?$allocator@K@std@@@std@@YAXPAK0AAV?$allocator@K@0@U?$integral_constant@_N$00@0@@Z
	??$_Destroy_range1@V?$allocator@PAVGlyph@BookEngine@@@std@@@std@@YAXPAPAVGlyph@BookEngine@@0AAV?$allocator@PAVGlyph@BookEngine@@@0@U?$integral_constant@_N$00@0@@Z
	??$_Destroy_range1@V?$allocator@PAVIScreen@BookEngine@@@std@@@std@@YAXPAPAVIScreen@BookEngine@@0AAV?$allocator@PAVIScreen@BookEngine@@@0@U?$integral_constant@_N$00@0@@Z
	??$_Destroy_range1@V?$allocator@PAVParticleBatch2D@BookEngine@@@std@@@std@@YAXPAPAVParticleBatch2D@BookEngine@@0AAV?$allocator@PAVParticleBatch2D@BookEngine@@@0@U?$integral_constant@_N$00@0@@Z
	??$_Destroy_range1@V?$allocator@U?$tvec2@M$0A@@glm@@@std@@@std@@YAXPAU?$tvec2@M$0A@@glm@@0AAV?$allocator@U?$tvec2@M$0A@@glm@@@0@U?$integral_constant@_N$00@0@@Z
	??$_Destroy_range1@V?$allocator@U?$tvec3@M$0A@@glm@@@std@@@std@@YAXPAU?$tvec3@M$0A@@glm@@0AAV?$allocator@U?$tvec3@M$0A@@glm@@@0@U?$integral_constant@_N$00@0@@Z
	??$_Destroy_range1@V?$allocator@U?$tvec4@M$0A@@glm@@@std@@@std@@YAXPAU?$tvec4@M$0A@@glm@@0AAV?$allocator@U?$tvec4@M$0A@@glm@@@0@U?$integral_constant@_N$00@0@@Z
	??$_Destroy_range1@V?$allocator@UVertex2D@BookEngine@@@std@@@std@@YAXPAUVertex2D@BookEngine@@0AAV?$allocator@UVertex2D@BookEngine@@@0@U?$integral_constant@_N$00@0@@Z
	??$_Destroy_range1@V?$allocator@V?$_List_unchecked_iterator@V?$_List_val@U?$_List_simple_types@U?$pair@$$CBI_N@std@@@std@@@std@@@std@@@std@@@std@@YAXPAV?$_List_unchecked_iterator@V?$_List_val@U?$_List_simple_types@U?$pair@$$CBI_N@std@@@std@@@std@@@0@0AAV?$allocator@V?$_List_unchecked_iterator@V?$_List_val@U?$_List_simple_types@U?$pair@$$CBI_N@std@@@std@@@std@@@std@@@0@U?$integral_constant@_N$00@0@@Z
	??$_Destroy_range1@V?$allocator@VBatchRenderr@BookEngine@@@std@@@std@@YAXPAVBatchRenderr@BookEngine@@0AAV?$allocator@VBatchRenderr@BookEngine@@@0@U?$integral_constant@_N$00@0@@Z
	??$_Destroy_range1@V?$allocator@VGlyph@BookEngine@@@std@@@std@@YAXPAVGlyph@BookEngine@@0AAV?$allocator@VGlyph@BookEngine@@@0@U?$integral_constant@_N$00@0@@Z
	??$_Destroy_range@PAPAVGlyph@BookEngine@@@std@@YAXPAPAVGlyph@BookEngine@@0@Z
	??$_Destroy_range@V?$allocator@D@std@@@std@@YAXPAD0AAV?$allocator@D@0@@Z
	??$_Destroy_range@V?$allocator@E@std@@@std@@YAXPAE0AAV?$allocator@E@0@@Z
	??$_Destroy_range@V?$allocator@H@std@@@std@@YAXPAH0AAV?$allocator@H@0@@Z
	??$_Destroy_range@V?$allocator@I@std@@@std@@YAXPAI0AAV?$allocator@I@0@@Z
	??$_Destroy_range@V?$allocator@K@std@@@std@@YAXPAK0AAV?$allocator@K@0@@Z
	??$_Destroy_range@V?$allocator@PAVGlyph@BookEngine@@@std@@@std@@YAXPAPAVGlyph@BookEngine@@0AAV?$allocator@PAVGlyph@BookEngine@@@0@@Z
	??$_Destroy_range@V?$allocator@PAVIScreen@BookEngine@@@std@@@std@@YAXPAPAVIScreen@BookEngine@@0AAV?$allocator@PAVIScreen@BookEngine@@@0@@Z
	??$_Destroy_range@V?$allocator@PAVParticleBatch2D@BookEngine@@@std@@@std@@YAXPAPAVParticleBatch2D@BookEngine@@0AAV?$allocator@PAVParticleBatch2D@BookEngine@@@0@@Z
	??$_Destroy_range@V?$allocator@U?$tvec2@M$0A@@glm@@@std@@@std@@YAXPAU?$tvec2@M$0A@@glm@@0AAV?$allocator@U?$tvec2@M$0A@@glm@@@0@@Z
	??$_Destroy_range@V?$allocator@U?$tvec3@M$0A@@glm@@@std@@@std@@YAXPAU?$tvec3@M$0A@@glm@@0AAV?$allocator@U?$tvec3@M$0A@@glm@@@0@@Z
	??$_Destroy_range@V?$allocator@U?$tvec4@M$0A@@glm@@@std@@@std@@YAXPAU?$tvec4@M$0A@@glm@@0AAV?$allocator@U?$tvec4@M$0A@@glm@@@0@@Z
	??$_Destroy_range@V?$allocator@UVertex2D@BookEngine@@@std@@@std@@YAXPAUVertex2D@BookEngine@@0AAV?$allocator@UVertex2D@BookEngine@@@0@@Z
	??$_Destroy_range@V?$allocator@V?$_List_unchecked_iterator@V?$_List_val@U?$_List_simple_types@U?$pair@$$CBI_N@std@@@std@@@std@@@std@@@std@@@std@@YAXPAV?$_List_unchecked_iterator@V?$_List_val@U?$_List_simple_types@U?$pair@$$CBI_N@std@@@std@@@std@@@0@0AAV?$allocator@V?$_List_unchecked_iterator@V?$_List_val@U?$_List_simple_types@U?$pair@$$CBI_N@std@@@std@@@std@@@std@@@0@@Z
	??$_Destroy_range@V?$allocator@VBatchRenderr@BookEngine@@@std@@@std@@YAXPAVBatchRenderr@BookEngine@@0AAV?$allocator@VBatchRenderr@BookEngine@@@0@@Z
	??$_Destroy_range@V?$allocator@VGlyph@BookEngine@@@std@@@std@@YAXPAVGlyph@BookEngine@@0AAV?$allocator@VGlyph@BookEngine@@@0@@Z
	??$_Distance1@PAPAVGlyph@BookEngine@@@std@@YAHPAPAVGlyph@BookEngine@@0Urandom_access_iterator_tag@0@@Z
	??$_Distance1@PBE@std@@YAHPBE0Urandom_access_iterator_tag@0@@Z
	??$_Emplace_back_with_unused_capacity@AAHHAAI@?$vector@VBatchRenderr@BookEngine@@V?$allocator@VBatchRenderr@BookEngine@@@std@@@std@@AAEXAAH$$QAHAAI@Z
	??$_Emplace_back_with_unused_capacity@ABH@?$vector@HV?$allocator@H@std@@@std@@AAEXABH@Z
	??$_Emplace_back_with_unused_capacity@ABI@?$vector@IV?$allocator@I@std@@@std@@AAEXABI@Z
	??$_Emplace_back_with_unused_capacity@ABQAVIScreen@BookEngine@@@?$vector@PAVIScreen@BookEngine@@V?$allocator@PAVIScreen@BookEngine@@@std@@@std@@AAEXABQAVIScreen@BookEngine@@@Z
	??$_Emplace_back_with_unused_capacity@ABQAVParticleBatch2D@BookEngine@@@?$vector@PAVParticleBatch2D@BookEngine@@V?$allocator@PAVParticleBatch2D@BookEngine@@@std@@@std@@AAEXABQAVParticleBatch2D@BookEngine@@@Z
	??$_Emplace_back_with_unused_capacity@ABU?$tvec2@M$0A@@glm@@@?$vector@U?$tvec2@M$0A@@glm@@V?$allocator@U?$tvec2@M$0A@@glm@@@std@@@std@@AAEXABU?$tvec2@M$0A@@glm@@@Z
	??$_Emplace_back_with_unused_capacity@ABU?$tvec3@M$0A@@glm@@@?$vector@U?$tvec3@M$0A@@glm@@V?$allocator@U?$tvec3@M$0A@@glm@@@std@@@std@@AAEXABU?$tvec3@M$0A@@glm@@@Z
	??$_Emplace_back_with_unused_capacity@ABU?$tvec4@M$0A@@glm@@@?$vector@U?$tvec4@M$0A@@glm@@V?$allocator@U?$tvec4@M$0A@@glm@@@std@@@std@@AAEXABU?$tvec4@M$0A@@glm@@@Z
	??$_Emplace_back_with_unused_capacity@ABU?$tvec4@M$0A@@glm@@ABU12@AAIAAMABUColorRGBA8@BookEngine@@@?$vector@VGlyph@BookEngine@@V?$allocator@VGlyph@BookEngine@@@std@@@std@@AAEXABU?$tvec4@M$0A@@glm@@0AAIAAMABUColorRGBA8@BookEngine@@@Z
	??$_Emplace_back_with_unused_capacity@ABU?$tvec4@M$0A@@glm@@ABU12@AAIAAMABUColorRGBA8@BookEngine@@AAM@?$vector@VGlyph@BookEngine@@V?$allocator@VGlyph@BookEngine@@@std@@@std@@AAEXABU?$tvec4@M$0A@@glm@@0AAIAAMABUColorRGBA8@BookEngine@@2@Z
	??$_Fgetc@D@std@@YA_NAADPAU_iobuf@@@Z
	??$_Fill_memset_is_safe@PAV?$_List_unchecked_iterator@V?$_List_val@U?$_List_simple_types@U?$pair@$$CBI_N@std@@@std@@@std@@@std@@V12@@std@@YA?AU?$integral_constant@_N$0A@@0@ABQAV?$_List_unchecked_iterator@V?$_List_val@U?$_List_simple_types@U?$pair@$$CBI_N@std@@@std@@@std@@@0@ABV20@@Z
	??$_Fill_unchecked1@PAV?$_List_unchecked_iterator@V?$_List_val@U?$_List_simple_types@U?$pair@$$CBI_N@std@@@std@@@std@@@std@@V12@@std@@YAXPAV?$_List_unchecked_iterator@V?$_List_val@U?$_List_simple_types@U?$pair@$$CBI_N@std@@@std@@@std@@@0@0ABV10@U?$integral_constant@_N$0A@@0@@Z
	??$_Fill_unchecked@PAV?$_List_unchecked_iterator@V?$_List_val@U?$_List_simple_types@U?$pair@$$CBI_N@std@@@std@@@std@@@std@@V12@@std@@YAXPAV?$_List_unchecked_iterator@V?$_List_val@U?$_List_simple_types@U?$pair@$$CBI_N@std@@@std@@@std@@@0@0ABV10@@Z
	??$_Fputc@D@std@@YA_NDPAU_iobuf@@@Z
	??$_Freenode0@V?$allocator@U?$_List_node@U?$pair@$$CBI_N@std@@PAX@std@@@std@@@?$_List_node@U?$pair@$$CBI_N@std@@PAX@std@@SAXAAV?$allocator@U?$_List_node@U?$pair@$$CBI_N@std@@PAX@std@@@1@PAU01@@Z
	??$_Freenode0@V?$allocator@U?$_Tree_node@U?$pair@$$CBV?$basic_string@DU?$char_traits@D@std@@V?$allocator@D@2@@std@@PAUMix_Chunk@@@std@@PAX@std@@@std@@@?$_Tree_node@U?$pair@$$CBV?$basic_string@DU?$char_traits@D@std@@V?$allocator@D@2@@std@@PAUMix_Chunk@@@std@@PAX@std@@SAXAAV?$allocator@U?$_Tree_node@U?$pair@$$CBV?$basic_string@DU?$char_traits@D@std@@V?$allocator@D@2@@std@@PAUMix_Chunk@@@std@@PAX@std@@@1@PAU01@@Z
	??$_Freenode0@V?$allocator@U?$_Tree_node@U?$pair@$$CBV?$basic_string@DU?$char_traits@D@std@@V?$allocator@D@2@@std@@PAU_Mix_Music@@@std@@PAX@std@@@std@@@?$_Tree_node@U?$pair@$$CBV?$basic_string@DU?$char_traits@D@std@@V?$allocator@D@2@@std@@PAU_Mix_Music@@@std@@PAX@std@@SAXAAV?$allocator@U?$_Tree_node@U?$pair@$$CBV?$basic_string@DU?$char_traits@D@std@@V?$allocator@D@2@@std@@PAU_Mix_Music@@@std@@PAX@std@@@1@PAU01@@Z
	??$_Freenode0@V?$allocator@U?$_Tree_node@U?$pair@$$CBV?$basic_string@DU?$char_traits@D@std@@V?$allocator@D@2@@std@@UGLTexture@BookEngine@@@std@@PAX@std@@@std@@@?$_Tree_node@U?$pair@$$CBV?$basic_string@DU?$char_traits@D@std@@V?$allocator@D@2@@std@@UGLTexture@BookEngine@@@std@@PAX@std@@SAXAAV?$allocator@U?$_Tree_node@U?$pair@$$CBV?$basic_string@DU?$char_traits@D@std@@V?$allocator@D@2@@std@@UGLTexture@BookEngine@@@std@@PAX@std@@@1@PAU01@@Z
	??$_Get_temporary_buffer@PAVGlyph@BookEngine@@@std@@YA?AU?$pair@PAPAVGlyph@BookEngine@@H@0@H@Z
	??$_Hash_representation@I@std@@YAIABI@Z
	??$_Inplace_merge_buffer_left@PAPAVGlyph@BookEngine@@HPAV12@P6A_NPAV12@0@Z@std@@YAXPAPAVGlyph@BookEngine@@00HAAU?$_Temporary_buffer@PAVGlyph@BookEngine@@@0@P6A_NPAV12@2@Z@Z
	??$_Inplace_merge_buffer_right@PAPAVGlyph@BookEngine@@HPAV12@P6A_NPAV12@0@Z@std@@YAXPAPAVGlyph@BookEngine@@00HAAU?$_Temporary_buffer@PAVGlyph@BookEngine@@@0@P6A_NPAV12@2@Z@Z
	??$_Insert@AAU?$pair@$$CBI_N@std@@V?$_List_unchecked_iterator@V?$_List_val@U?$_List_simple_types@U?$pair@$$CBI_N@std@@@std@@@std@@@2@@?$_Hash@V?$_Umap_traits@I_NV?$_Uhash_compare@IU?$hash@I@std@@U?$equal_to@I@2@@std@@V?$allocator@U?$pair@$$CBI_N@std@@@2@$0A@@std@@@std@@IAE?AU?$pair@V?$_List_iterator@V?$_List_val@U?$_List_simple_types@U?$pair@$$CBI_N@std@@@std@@@std@@@std@@_N@1@AAU?$pair@$$CBI_N@1@V?$_List_unchecked_iterator@V?$_List_val@U?$_List_simple_types@U?$pair@$$CBI_N@std@@@std@@@std@@@1@@Z
	??$_Insert@ABUpiecewise_construct_t@std@@V?$tuple@ABI@2@V?$tuple@$$V@2@@?$list@U?$pair@$$CBI_N@std@@V?$allocator@U?$pair@$$CBI_N@std@@@2@@std@@QAEXV?$_List_unchecked_const_iterator@V?$_List_val@U?$_List_simple_types@U?$pair@$$CBI_N@std@@@std@@@std@@U_Iterator_base0@2@@1@ABUpiecewise_construct_t@1@$$QAV?$tuple@ABI@1@$$QAV?$tuple@$$V@1@@Z
	??$_Insert_at@AAU?$pair@$$CBV?$basic_string@DU?$char_traits@D@std@@V?$allocator@D@2@@std@@PAUMix_Chunk@@@std@@PAU?$_Tree_node@U?$pair@$$CBV?$basic_string@DU?$char_traits@D@std@@V?$allocator@D@2@@std@@PAUMix_Chunk@@@std@@PAX@2@@?$_Tree@V?$_Tmap_traits@V?$basic_string@DU?$char_traits@D@std@@V?$allocator@D@2@@std@@PAUMix_Chunk@@U?$less@V?$basic_string@DU?$char_traits@D@std@@V?$allocator@D@2@@std@@@2@V?$allocator@U?$pair@$$CBV?$basic_string@DU?$char_traits@D@std@@V?$allocator@D@2@@std@@PAUMix_Chunk@@@std@@@2@$0A@@std@@@std@@IAE?AV?$_Tree_iterator@V?$_Tree_val@U?$_Tree_simple_types@U?$pair@$$CBV?$basic_string@DU?$char_traits@D@std@@V?$allocator@D@2@@std@@PAUMix_Chunk@@@std@@@std@@@std@@@1@_NPAU?$_Tree_node@U?$pair@$$CBV?$basic_string@DU?$char_traits@D@std@@V?$allocator@D@2@@std@@PAUMix_Chunk@@@std@@PAX@1@AAU?$pair@$$CBV?$basic_string@DU?$char_traits@D@std@@V?$allocator@D@2@@std@@PAUMix_Chunk@@@1@1@Z
	??$_Insert_at@AAU?$pair@$$CBV?$basic_string@DU?$char_traits@D@std@@V?$allocator@D@2@@std@@PAU_Mix_Music@@@std@@PAU?$_Tree_node@U?$pair@$$CBV?$basic_string@DU?$char_traits@D@std@@V?$allocator@D@2@@std@@PAU_Mix_Music@@@std@@PAX@2@@?$_Tree@V?$_Tmap_traits@V?$basic_string@DU?$char_traits@D@std@@V?$allocator@D@2@@std@@PAU_Mix_Music@@U?$less@V?$basic_string@DU?$char_traits@D@std@@V?$allocator@D@2@@std@@@2@V?$allocator@U?$pair@$$CBV?$basic_string@DU?$char_traits@D@std@@V?$allocator@D@2@@std@@PAU_Mix_Music@@@std@@@2@$0A@@std@@@std@@IAE?AV?$_Tree_iterator@V?$_Tree_val@U?$_Tree_simple_types@U?$pair@$$CBV?$basic_string@DU?$char_traits@D@std@@V?$allocator@D@2@@std@@PAU_Mix_Music@@@std@@@std@@@std@@@1@_NPAU?$_Tree_node@U?$pair@$$CBV?$basic_string@DU?$char_traits@D@std@@V?$allocator@D@2@@std@@PAU_Mix_Music@@@std@@PAX@1@AAU?$pair@$$CBV?$basic_string@DU?$char_traits@D@std@@V?$allocator@D@2@@std@@PAU_Mix_Music@@@1@1@Z
	??$_Insert_at@AAU?$pair@$$CBV?$basic_string@DU?$char_traits@D@std@@V?$allocator@D@2@@std@@UGLTexture@BookEngine@@@std@@PAU?$_Tree_node@U?$pair@$$CBV?$basic_string@DU?$char_traits@D@std@@V?$allocator@D@2@@std@@UGLTexture@BookEngine@@@std@@PAX@2@@?$_Tree@V?$_Tmap_traits@V?$basic_string@DU?$char_traits@D@std@@V?$allocator@D@2@@std@@UGLTexture@BookEngine@@U?$less@V?$basic_string@DU?$char_traits@D@std@@V?$allocator@D@2@@std@@@2@V?$allocator@U?$pair@$$CBV?$basic_string@DU?$char_traits@D@std@@V?$allocator@D@2@@std@@UGLTexture@BookEngine@@@std@@@2@$0A@@std@@@std@@IAE?AV?$_Tree_iterator@V?$_Tree_val@U?$_Tree_simple_types@U?$pair@$$CBV?$basic_string@DU?$char_traits@D@std@@V?$allocator@D@2@@std@@UGLTexture@BookEngine@@@std@@@std@@@std@@@1@_NPAU?$_Tree_node@U?$pair@$$CBV?$basic_string@DU?$char_traits@D@std@@V?$allocator@D@2@@std@@UGLTexture@BookEngine@@@std@@PAX@1@AAU?$pair@$$CBV?$basic_string@DU?$char_traits@D@std@@V?$allocator@D@2@@std@@UGLTexture@BookEngine@@@1@1@Z
	??$_Insert_hint@AAU?$pair@$$CBV?$basic_string@DU?$char_traits@D@std@@V?$allocator@D@2@@std@@PAUMix_Chunk@@@std@@PAU?$_Tree_node@U?$pair@$$CBV?$basic_string@DU?$char_traits@D@std@@V?$allocator@D@2@@std@@PAUMix_Chunk@@@std@@PAX@2@@?$_Tree@V?$_Tmap_traits@V?$basic_string@DU?$char_traits@D@std@@V?$allocator@D@2@@std@@PAUMix_Chunk@@U?$less@V?$basic_string@DU?$char_traits@D@std@@V?$allocator@D@2@@std@@@2@V?$allocator@U?$pair@$$CBV?$basic_string@DU?$char_traits@D@std@@V?$allocator@D@2@@std@@PAUMix_Chunk@@@std@@@2@$0A@@std@@@std@@IAE?AV?$_Tree_iterator@V?$_Tree_val@U?$_Tree_simple_types@U?$pair@$$CBV?$basic_string@DU?$char_traits@D@std@@V?$allocator@D@2@@std@@PAUMix_Chunk@@@std@@@std@@@std@@@1@V?$_Tree_const_iterator@V?$_Tree_val@U?$_Tree_simple_types@U?$pair@$$CBV?$basic_string@DU?$char_traits@D@std@@V?$allocator@D@2@@std@@PAUMix_Chunk@@@std@@@std@@@std@@@1@AAU?$pair@$$CBV?$basic_string@DU?$char_traits@D@std@@V?$allocator@D@2@@std@@PAUMix_Chunk@@@1@PAU?$_Tree_node@U?$pair@$$CBV?$basic_string@DU?$char_traits@D@std@@V?$allocator@D@2@@std@@PAUMix_Chunk@@@std@@PAX@1@@Z
	??$_Insert_hint@AAU?$pair@$$CBV?$basic_string@DU?$char_traits@D@std@@V?$allocator@D@2@@std@@PAU_Mix_Music@@@std@@PAU?$_Tree_node@U?$pair@$$CBV?$basic_string@DU?$char_traits@D@std@@V?$allocator@D@2@@std@@PAU_Mix_Music@@@std@@PAX@2@@?$_Tree@V?$_Tmap_traits@V?$basic_string@DU?$char_traits@D@std@@V?$allocator@D@2@@std@@PAU_Mix_Music@@U?$less@V?$basic_string@DU?$char_traits@D@std@@V?$allocator@D@2@@std@@@2@V?$allocator@U?$pair@$$CBV?$basic_string@DU?$char_traits@D@std@@V?$allocator@D@2@@std@@PAU_Mix_Music@@@std@@@2@$0A@@std@@@std@@IAE?AV?$_Tree_iterator@V?$_Tree_val@U?$_Tree_simple_types@U?$pair@$$CBV?$basic_string@DU?$char_traits@D@std@@V?$allocator@D@2@@std@@PAU_Mix_Music@@@std@@@std@@@std@@@1@V?$_Tree_const_iterator@V?$_Tree_val@U?$_Tree_simple_types@U?$pair@$$CBV?$basic_string@DU?$char_traits@D@std@@V?$allocator@D@2@@std@@PAU_Mix_Music@@@std@@@std@@@std@@@1@AAU?$pair@$$CBV?$basic_string@DU?$char_traits@D@std@@V?$allocator@D@2@@std@@PAU_Mix_Music@@@1@PAU?$_Tree_node@U?$pair@$$CBV?$basic_string@DU?$char_traits@D@std@@V?$allocator@D@2@@std@@PAU_Mix_Music@@@std@@PAX@1@@Z
	??$_Insert_nohint@AAU?$pair@$$CBV?$basic_string@DU?$char_traits@D@std@@V?$allocator@D@2@@std@@PAUMix_Chunk@@@std@@PAU?$_Tree_node@U?$pair@$$CBV?$basic_string@DU?$char_traits@D@std@@V?$allocator@D@2@@std@@PAUMix_Chunk@@@std@@PAX@2@@?$_Tree@V?$_Tmap_traits@V?$basic_string@DU?$char_traits@D@std@@V?$allocator@D@2@@std@@PAUMix_Chunk@@U?$less@V?$basic_string@DU?$char_traits@D@std@@V?$allocator@D@2@@std@@@2@V?$allocator@U?$pair@$$CBV?$basic_string@DU?$char_traits@D@std@@V?$allocator@D@2@@std@@PAUMix_Chunk@@@std@@@2@$0A@@std@@@std@@IAE?AU?$pair@V?$_Tree_iterator@V?$_Tree_val@U?$_Tree_simple_types@U?$pair@$$CBV?$basic_string@DU?$char_traits@D@std@@V?$allocator@D@2@@std@@PAUMix_Chunk@@@std@@@std@@@std@@@std@@_N@1@_NAAU?$pair@$$CBV?$basic_string@DU?$char_traits@D@std@@V?$allocator@D@2@@std@@PAUMix_Chunk@@@1@PAU?$_Tree_node@U?$pair@$$CBV?$basic_string@DU?$char_traits@D@std@@V?$allocator@D@2@@std@@PAUMix_Chunk@@@std@@PAX@1@@Z
	??$_Insert_nohint@AAU?$pair@$$CBV?$basic_string@DU?$char_traits@D@std@@V?$allocator@D@2@@std@@PAU_Mix_Music@@@std@@PAU?$_Tree_node@U?$pair@$$CBV?$basic_string@DU?$char_traits@D@std@@V?$allocator@D@2@@std@@PAU_Mix_Music@@@std@@PAX@2@@?$_Tree@V?$_Tmap_traits@V?$basic_string@DU?$char_traits@D@std@@V?$allocator@D@2@@std@@PAU_Mix_Music@@U?$less@V?$basic_string@DU?$char_traits@D@std@@V?$allocator@D@2@@std@@@2@V?$allocator@U?$pair@$$CBV?$basic_string@DU?$char_traits@D@std@@V?$allocator@D@2@@std@@PAU_Mix_Music@@@std@@@2@$0A@@std@@@std@@IAE?AU?$pair@V?$_Tree_iterator@V?$_Tree_val@U?$_Tree_simple_types@U?$pair@$$CBV?$basic_string@DU?$char_traits@D@std@@V?$allocator@D@2@@std@@PAU_Mix_Music@@@std@@@std@@@std@@@std@@_N@1@_NAAU?$pair@$$CBV?$basic_string@DU?$char_traits@D@std@@V?$allocator@D@2@@std@@PAU_Mix_Music@@@1@PAU?$_Tree_node@U?$pair@$$CBV?$basic_string@DU?$char_traits@D@std@@V?$allocator@D@2@@std@@PAU_Mix_Music@@@std@@PAX@1@@Z
	??$_Insert_nohint@AAU?$pair@$$CBV?$basic_string@DU?$char_traits@D@std@@V?$allocator@D@2@@std@@UGLTexture@BookEngine@@@std@@PAU?$_Tree_node@U?$pair@$$CBV?$basic_string@DU?$char_traits@D@std@@V?$allocator@D@2@@std@@UGLTexture@BookEngine@@@std@@PAX@2@@?$_Tree@V?$_Tmap_traits@V?$basic_string@DU?$char_traits@D@std@@V?$allocator@D@2@@std@@UGLTexture@BookEngine@@U?$less@V?$basic_string@DU?$char_traits@D@std@@V?$allocator@D@2@@std@@@2@V?$allocator@U?$pair@$$CBV?$basic_string@DU?$char_traits@D@std@@V?$allocator@D@2@@std@@UGLTexture@BookEngine@@@std@@@2@$0A@@std@@@std@@IAE?AU?$pair@V?$_Tree_iterator@V?$_Tree_val@U?$_Tree_simple_types@U?$pair@$$CBV?$basic_string@DU?$char_traits@D@std@@V?$allocator@D@2@@std@@UGLTexture@BookEngine@@@std@@@std@@@std@@@std@@_N@1@_NAAU?$pair@$$CBV?$basic_string@DU?$char_traits@D@std@@V?$allocator@D@2@@std@@UGLTexture@BookEngine@@@1@PAU?$_Tree_node@U?$pair@$$CBV?$basic_string@DU?$char_traits@D@std@@V?$allocator@D@2@@std@@UGLTexture@BookEngine@@@std@@PAX@1@@Z
	??$_Insert_range@PBE@?$vector@EV?$allocator@E@std@@@std@@AAEXV?$_Vector_const_iterator@V?$_Vector_val@U?$_Simple_types@E@std@@@std@@@1@PBE1Uforward_iterator_tag@1@@Z
	??$_Insertion_sort_unchecked@PAPAVGlyph@BookEngine@@P6A_NPAV12@0@Z@std@@YAXPAPAVGlyph@BookEngine@@0P6A_NPAV12@1@Z@Z
	??$_Integral_to_string@DH@std@@YA?AV?$basic_string@DU?$char_traits@D@std@@V?$allocator@D@2@@0@H@Z
	??$_Kfn@$$CBI_N@?$_Umap_traits@I_NV?$_Uhash_compare@IU?$hash@I@std@@U?$equal_to@I@2@@std@@V?$allocator@U?$pair@$$CBI_N@std@@@2@$0A@@std@@SAABIABU?$pair@$$CBI_N@1@@Z
	??$_Kfn@$$CBV?$basic_string@DU?$char_traits@D@std@@V?$allocator@D@2@@std@@PAUMix_Chunk@@@?$_Tmap_traits@V?$basic_string@DU?$char_traits@D@std@@V?$allocator@D@2@@std@@PAUMix_Chunk@@U?$less@V?$basic_string@DU?$char_traits@D@std@@V?$allocator@D@2@@std@@@2@V?$allocator@U?$pair@$$CBV?$basic_string@DU?$char_traits@D@std@@V?$allocator@D@2@@std@@PAUMix_Chunk@@@std@@@2@$0A@@std@@SAABV?$basic_string@DU?$char_traits@D@std@@V?$allocator@D@2@@1@ABU?$pair@$$CBV?$basic_string@DU?$char_traits@D@std@@V?$allocator@D@2@@std@@PAUMix_Chunk@@@1@@Z
	??$_Kfn@$$CBV?$basic_string@DU?$char_traits@D@std@@V?$allocator@D@2@@std@@PAU_Mix_Music@@@?$_Tmap_traits@V?$basic_string@DU?$char_traits@D@std@@V?$allocator@D@2@@std@@PAU_Mix_Music@@U?$less@V?$basic_string@DU?$char_traits@D@std@@V?$allocator@D@2@@std@@@2@V?$allocator@U?$pair@$$CBV?$basic_string@DU?$char_traits@D@std@@V?$allocator@D@2@@std@@PAU_Mix_Music@@@std@@@2@$0A@@std@@SAABV?$basic_string@DU?$char_traits@D@std@@V?$allocator@D@2@@1@ABU?$pair@$$CBV?$basic_string@DU?$char_traits@D@std@@V?$allocator@D@2@@std@@PAU_Mix_Music@@@1@@Z
	??$_Kfn@$$CBV?$basic_string@DU?$char_traits@D@std@@V?$allocator@D@2@@std@@UGLTexture@BookEngine@@@?$_Tmap_traits@V?$basic_string@DU?$char_traits@D@std@@V?$allocator@D@2@@std@@UGLTexture@BookEngine@@U?$less@V?$basic_string@DU?$char_traits@D@std@@V?$allocator@D@2@@std@@@2@V?$allocator@U?$pair@$$CBV?$basic_string@DU?$char_traits@D@std@@V?$allocator@D@2@@std@@UGLTexture@BookEngine@@@std@@@2@$0A@@std@@SAABV?$basic_string@DU?$char_traits@D@std@@V?$allocator@D@2@@1@ABU?$pair@$$CBV?$basic_string@DU?$char_traits@D@std@@V?$allocator@D@2@@std@@UGLTexture@BookEngine@@@1@@Z
	??$_Lbound@V?$basic_string@DU?$char_traits@D@std@@V?$allocator@D@2@@std@@@?$_Tree@V?$_Tmap_traits@V?$basic_string@DU?$char_traits@D@std@@V?$allocator@D@2@@std@@PAUMix_Chunk@@U?$less@V?$basic_string@DU?$char_traits@D@std@@V?$allocator@D@2@@std@@@2@V?$allocator@U?$pair@$$CBV?$basic_string@DU?$char_traits@D@std@@V?$allocator@D@2@@std@@PAUMix_Chunk@@@std@@@2@$0A@@std@@@std@@IBEPAU?$_Tree_node@U?$pair@$$CBV?$basic_string@DU?$char_traits@D@std@@V?$allocator@D@2@@std@@PAUMix_Chunk@@@std@@PAX@1@ABV?$basic_string@DU?$char_traits@D@std@@V?$allocator@D@2@@1@@Z
	??$_Lbound@V?$basic_string@DU?$char_traits@D@std@@V?$allocator@D@2@@std@@@?$_Tree@V?$_Tmap_traits@V?$basic_string@DU?$char_traits@D@std@@V?$allocator@D@2@@std@@PAU_Mix_Music@@U?$less@V?$basic_string@DU?$char_traits@D@std@@V?$allocator@D@2@@std@@@2@V?$allocator@U?$pair@$$CBV?$basic_string@DU?$char_traits@D@std@@V?$allocator@D@2@@std@@PAU_Mix_Music@@@std@@@2@$0A@@std@@@std@@IBEPAU?$_Tree_node@U?$pair@$$CBV?$basic_string@DU?$char_traits@D@std@@V?$allocator@D@2@@std@@PAU_Mix_Music@@@std@@PAX@1@ABV?$basic_string@DU?$char_traits@D@std@@V?$allocator@D@2@@1@@Z
	??$_Lbound@V?$basic_string@DU?$char_traits@D@std@@V?$allocator@D@2@@std@@@?$_Tree@V?$_Tmap_traits@V?$basic_string@DU?$char_traits@D@std@@V?$allocator@D@2@@std@@UGLTexture@BookEngine@@U?$less@V?$basic_string@DU?$char_traits@D@std@@V?$allocator@D@2@@std@@@2@V?$allocator@U?$pair@$$CBV?$basic_string@DU?$char_traits@D@std@@V?$allocator@D@2@@std@@UGLTexture@BookEngine@@@std@@@2@$0A@@std@@@std@@IBEPAU?$_Tree_node@U?$pair@$$CBV?$basic_string@DU?$char_traits@D@std@@V?$allocator@D@2@@std@@UGLTexture@BookEngine@@@std@@PAX@1@ABV?$basic_string@DU?$char_traits@D@std@@V?$allocator@D@2@@1@@Z
	??$_Lower_bound_unchecked@PAPAVGlyph@BookEngine@@PAV12@P6A_NPAV12@0@Z@std@@YAPAPAVGlyph@BookEngine@@PAPAV12@0ABQAV12@P6A_NPAV12@2@Z@Z
	??$_Max_value@I@std@@YAABIABI0@Z
	??$_Min_value@I@std@@YAABIABI0@Z
	??$_Move_backward_unchecked1@PAEPAE@std@@YAPAEPAE00U_Trivially_copyable_ptr_iterator_tag@0@@Z
	??$_Move_backward_unchecked1@PAPAVGlyph@BookEngine@@PAPAV12@@std@@YAPAPAVGlyph@BookEngine@@PAPAV12@00U_Trivially_copyable_ptr_iterator_tag@0@@Z
	??$_Move_backward_unchecked@PAEPAE@std@@YAPAEPAE00@Z
	??$_Move_backward_unchecked@PAPAVGlyph@BookEngine@@PAPAV12@@std@@YAPAPAVGlyph@BookEngine@@PAPAV12@00@Z
	??$_Move_unchecked1@PAEPAE@std@@YAPAEPAE00U_Trivially_copyable_ptr_iterator_tag@0@@Z
	??$_Move_unchecked1@PAPAVGlyph@BookEngine@@PAPAV12@@std@@YAPAPAVGlyph@BookEngine@@PAPAV12@00U_Trivially_copyable_ptr_iterator_tag@0@@Z
	??$_Move_unchecked1@PAPAVGlyph@BookEngine@@V?$back_insert_iterator@U?$_Temporary_range@PAVGlyph@BookEngine@@@std@@@std@@@std@@YA?AV?$back_insert_iterator@U?$_Temporary_range@PAVGlyph@BookEngine@@@std@@@0@PAPAVGlyph@BookEngine@@0V10@U_General_ptr_iterator_tag@0@@Z
	??$_Move_unchecked@PAEPAE@std@@YAPAEPAE00@Z
	??$_Move_unchecked@PAPAVGlyph@BookEngine@@PAPAV12@@std@@YAPAPAVGlyph@BookEngine@@PAPAV12@00@Z
	??$_Move_unchecked@PAPAVGlyph@BookEngine@@V?$back_insert_iterator@U?$_Temporary_range@PAVGlyph@BookEngine@@@std@@@std@@@std@@YA?AV?$back_insert_iterator@U?$_Temporary_range@PAVGlyph@BookEngine@@@std@@@0@PAPAVGlyph@BookEngine@@0V10@@Z
	??$_Next_iter@PAPAVGlyph@BookEngine@@@std@@YAPAPAVGlyph@BookEngine@@PAPAV12@@Z
	??$_Pass_fn@P6A_NPAVGlyph@BookEngine@@0@Z$0A@@std@@YAP6A_NPAVGlyph@BookEngine@@0@ZP6A_N00@Z@Z
	??$_Prev_iter@PAPAVGlyph@BookEngine@@@std@@YAPAPAVGlyph@BookEngine@@PAPAV12@@Z
	??$_Ptr_copy_cat@$$CBEE@std@@YA?AU_Really_trivial_ptr_iterator_tag@0@ABQBEABQAE@Z
	??$_Ptr_copy_cat@EE@std@@YA?AU_Really_trivial_ptr_iterator_tag@0@ABQAE0@Z
	??$_Ptr_move_cat@EE@std@@YA?AU_Really_trivial_ptr_iterator_tag@0@ABQAE0@Z
	??$_Ptr_move_cat@HH@std@@YA?AU_Really_trivial_ptr_iterator_tag@0@ABQAH0@Z
	??$_Ptr_move_cat@II@std@@YA?AU_Really_trivial_ptr_iterator_tag@0@ABQAI0@Z
	??$_Ptr_move_cat@KK@std@@YA?AU_Really_trivial_ptr_iterator_tag@0@ABQAK0@Z
	??$_Ptr_move_cat@PAPAVGlyph@BookEngine@@V?$back_insert_iterator@U?$_Temporary_range@PAVGlyph@BookEngine@@@std@@@std@@@std@@YA?AU_General_ptr_iterator_tag@0@ABQAPAVGlyph@BookEngine@@ABV?$back_insert_iterator@U?$_Temporary_range@PAVGlyph@BookEngine@@@std@@@0@@Z
	??$_Ptr_move_cat@PAVGlyph@BookEngine@@PAV12@@std@@YA?AU_Really_trivial_ptr_iterator_tag@0@ABQAPAVGlyph@BookEngine@@0@Z
	??$_Ptr_move_cat@PAVIScreen@BookEngine@@PAV12@@std@@YA?AU_Really_trivial_ptr_iterator_tag@0@ABQAPAVIScreen@BookEngine@@0@Z
	??$_Ptr_move_cat@PAVParticleBatch2D@BookEngine@@PAV12@@std@@YA?AU_Really_trivial_ptr_iterator_tag@0@ABQAPAVParticleBatch2D@BookEngine@@0@Z
	??$_Ptr_move_cat@U?$tvec2@M$0A@@glm@@U12@@std@@YA?AU_Trivially_copyable_ptr_iterator_tag@0@ABQAU?$tvec2@M$0A@@glm@@0@Z
	??$_Ptr_move_cat@U?$tvec3@M$0A@@glm@@U12@@std@@YA?AU_Trivially_copyable_ptr_iterator_tag@0@ABQAU?$tvec3@M$0A@@glm@@0@Z
	??$_Ptr_move_cat@U?$tvec4@M$0A@@glm@@U12@@std@@YA?AU_Trivially_copyable_ptr_iterator_tag@0@ABQAU?$tvec4@M$0A@@glm@@0@Z
	??$_Ptr_move_cat@UVertex2D@BookEngine@@U12@@std@@YA?AU_Trivially_copyable_ptr_iterator_tag@0@ABQAUVertex2D@BookEngine@@0@Z
	??$_Ptr_move_cat@V?$_List_unchecked_iterator@V?$_List_val@U?$_List_simple_types@U?$pair@$$CBI_N@std@@@std@@@std@@@std@@V12@@std@@YA?AU_Trivially_copyable_ptr_iterator_tag@0@ABQAV?$_List_unchecked_iterator@V?$_List_val@U?$_List_simple_types@U?$pair@$$CBI_N@std@@@std@@@std@@@0@0@Z
	??$_Ptr_move_cat@VBatchRenderr@BookEngine@@V12@@std@@YA?AU_Trivially_copyable_ptr_iterator_tag@0@ABQAVBatchRenderr@BookEngine@@0@Z
	??$_Ptr_move_cat@VGlyph@BookEngine@@V12@@std@@YA?AU_Trivially_copyable_ptr_iterator_tag@0@ABQAVGlyph@BookEngine@@0@Z
	??$_Rechecked@PAEPAE@std@@YAAAPAEAAPAEPAE@Z
	??$_Rechecked@PAHPAH@std@@YAAAPAHAAPAHPAH@Z
	??$_Rechecked@PAIPAI@std@@YAAAPAIAAPAIPAI@Z
	??$_Rechecked@PAKPAK@std@@YAAAPAKAAPAKPAK@Z
	??$_Rechecked@PAPAVGlyph@BookEngine@@PAPAV12@@std@@YAAAPAPAVGlyph@BookEngine@@AAPAPAV12@PAPAV12@@Z
	??$_Rechecked@PAPAVIScreen@BookEngine@@PAPAV12@@std@@YAAAPAPAVIScreen@BookEngine@@AAPAPAV12@PAPAV12@@Z
	??$_Rechecked@PAPAVParticleBatch2D@BookEngine@@PAPAV12@@std@@YAAAPAPAVParticleBatch2D@BookEngine@@AAPAPAV12@PAPAV12@@Z
	??$_Rechecked@PAU?$tvec2@M$0A@@glm@@PAU12@@std@@YAAAPAU?$tvec2@M$0A@@glm@@AAPAU12@PAU12@@Z
	??$_Rechecked@PAU?$tvec3@M$0A@@glm@@PAU12@@std@@YAAAPAU?$tvec3@M$0A@@glm@@AAPAU12@PAU12@@Z
	??$_Rechecked@PAU?$tvec4@M$0A@@glm@@PAU12@@std@@YAAAPAU?$tvec4@M$0A@@glm@@AAPAU12@PAU12@@Z
	??$_Rechecked@PAUVertex2D@BookEngine@@PAU12@@std@@YAAAPAUVertex2D@BookEngine@@AAPAU12@PAU12@@Z
	??$_Rechecked@PAV?$_List_unchecked_iterator@V?$_List_val@U?$_List_simple_types@U?$pair@$$CBI_N@std@@@std@@@std@@@std@@PAV12@@std@@YAAAPAV?$_List_unchecked_iterator@V?$_List_val@U?$_List_simple_types@U?$pair@$$CBI_N@std@@@std@@@std@@@0@AAPAV10@PAV10@@Z
	??$_Rechecked@PAVBatchRenderr@BookEngine@@PAV12@@std@@YAAAPAVBatchRenderr@BookEngine@@AAPAV12@PAV12@@Z
	??$_Rechecked@PAVGlyph@BookEngine@@PAV12@@std@@YAAAPAVGlyph@BookEngine@@AAPAV12@PAV12@@Z
	??$_Refancy@PAD$0A@@std@@YAPADPAD@Z
	??$_Return_temporary_buffer@PAVGlyph@BookEngine@@@std@@YAXPAPAVGlyph@BookEngine@@@Z
	??$_Reverse_unchecked1@PAPAVGlyph@BookEngine@@@std@@YAXQAPAVGlyph@BookEngine@@0U?$integral_constant@I$03@0@@Z
	??$_Reverse_unchecked@PAPAVGlyph@BookEngine@@@std@@YAXQAPAVGlyph@BookEngine@@0@Z
	??$_Rotate_one_left@PAPAVGlyph@BookEngine@@@std@@YAXPAPAVGlyph@BookEngine@@00@Z
	??$_Rotate_one_right@PAPAVGlyph@BookEngine@@@std@@YAXPAPAVGlyph@BookEngine@@00@Z
	??$_Rotate_unchecked1@PAPAVGlyph@BookEngine@@@std@@YAPAPAVGlyph@BookEngine@@PAPAV12@00Urandom_access_iterator_tag@0@@Z
	??$_Rotate_unchecked@PAPAVGlyph@BookEngine@@@std@@YAPAPAVGlyph@BookEngine@@PAPAV12@00@Z
	??$_Stable_sort_unchecked@PAPAVGlyph@BookEngine@@HPAV12@P6A_NPAV12@0@Z@std@@YAXPAPAVGlyph@BookEngine@@0HAAU?$_Temporary_buffer@PAVGlyph@BookEngine@@@0@P6A_NPAV12@2@Z@Z
	??$_Traits_compare@U?$char_traits@D@std@@@std@@YAHQBDI0I@Z
	??$_Traits_equal@U?$char_traits@D@std@@@std@@YA_NQBDI0I@Z
	??$_Try_emplace@ABI$$V@?$unordered_map@I_NU?$hash@I@std@@U?$equal_to@I@2@V?$allocator@U?$pair@$$CBI_N@std@@@2@@std@@QAE?AU?$pair@V?$_List_iterator@V?$_List_val@U?$_List_simple_types@U?$pair@$$CBI_N@std@@@std@@@std@@@std@@_N@1@ABI@Z
	??$_Try_emplace@ABV?$basic_string@DU?$char_traits@D@std@@V?$allocator@D@2@@std@@$$V@?$map@V?$basic_string@DU?$char_traits@D@std@@V?$allocator@D@2@@std@@PAUMix_Chunk@@U?$less@V?$basic_string@DU?$char_traits@D@std@@V?$allocator@D@2@@std@@@2@V?$allocator@U?$pair@$$CBV?$basic_string@DU?$char_traits@D@std@@V?$allocator@D@2@@std@@PAUMix_Chunk@@@std@@@2@@std@@QAE?AU?$pair@V?$_Tree_iterator@V?$_Tree_val@U?$_Tree_simple_types@U?$pair@$$CBV?$basic_string@DU?$char_traits@D@std@@V?$allocator@D@2@@std@@PAUMix_Chunk@@@std@@@std@@@std@@@std@@_N@1@ABV?$basic_string@DU?$char_traits@D@std@@V?$allocator@D@2@@1@@Z
	??$_Try_emplace@ABV?$basic_string@DU?$char_traits@D@std@@V?$allocator@D@2@@std@@$$V@?$map@V?$basic_string@DU?$char_traits@D@std@@V?$allocator@D@2@@std@@PAU_Mix_Music@@U?$less@V?$basic_string@DU?$char_traits@D@std@@V?$allocator@D@2@@std@@@2@V?$allocator@U?$pair@$$CBV?$basic_string@DU?$char_traits@D@std@@V?$allocator@D@2@@std@@PAU_Mix_Music@@@std@@@2@@std@@QAE?AU?$pair@V?$_Tree_iterator@V?$_Tree_val@U?$_Tree_simple_types@U?$pair@$$CBV?$basic_string@DU?$char_traits@D@std@@V?$allocator@D@2@@std@@PAU_Mix_Music@@@std@@@std@@@std@@@std@@_N@1@ABV?$basic_string@DU?$char_traits@D@std@@V?$allocator@D@2@@1@@Z
	??$_UIntegral_to_buff@DI@std@@YAPADPADI@Z
	??$_Ucopy@PAE@?$vector@EV?$allocator@E@std@@@std@@AAEPAEPAE00@Z
	??$_Ucopy@PBE@?$vector@EV?$allocator@E@std@@@std@@AAEPAEPBE0PAE@Z
	??$_Unchecked@PAD@std@@YAPADPAD@Z
	??$_Unchecked@PAE@std@@YAPAEPAE@Z
	??$_Unchecked@PAH@std@@YAPAHPAH@Z
	??$_Unchecked@PAI@std@@YAPAIPAI@Z
	??$_Unchecked@PAK@std@@YAPAKPAK@Z
	??$_Unchecked@PAPAVGlyph@BookEngine@@@std@@YAPAPAVGlyph@BookEngine@@PAPAV12@@Z
	??$_Unchecked@PAPAVIScreen@BookEngine@@@std@@YAPAPAVIScreen@BookEngine@@PAPAV12@@Z
	??$_Unchecked@PAPAVParticleBatch2D@BookEngine@@@std@@YAPAPAVParticleBatch2D@BookEngine@@PAPAV12@@Z
	??$_Unchecked@PAU?$tvec2@M$0A@@glm@@@std@@YAPAU?$tvec2@M$0A@@glm@@PAU12@@Z
	??$_Unchecked@PAU?$tvec3@M$0A@@glm@@@std@@YAPAU?$tvec3@M$0A@@glm@@PAU12@@Z
	??$_Unchecked@PAU?$tvec4@M$0A@@glm@@@std@@YAPAU?$tvec4@M$0A@@glm@@PAU12@@Z
	??$_Unchecked@PAUVertex2D@BookEngine@@@std@@YAPAUVertex2D@BookEngine@@PAU12@@Z
	??$_Unchecked@PAV?$_List_unchecked_iterator@V?$_List_val@U?$_List_simple_types@U?$pair@$$CBI_N@std@@@std@@@std@@@std@@@std@@YAPAV?$_List_unchecked_iterator@V?$_List_val@U?$_List_simple_types@U?$pair@$$CBI_N@std@@@std@@@std@@@0@PAV10@@Z
	??$_Unchecked@PAVBatchRenderr@BookEngine@@@std@@YAPAVBatchRenderr@BookEngine@@PAV12@@Z
	??$_Unchecked@PAVGlyph@BookEngine@@@std@@YAPAVGlyph@BookEngine@@PAV12@@Z
	??$_Unchecked@PBE@std@@YAPBEPBE@Z
	??$_Unchecked@V?$_List_val@U?$_List_simple_types@U?$pair@$$CBI_N@std@@@std@@@std@@@std@@YA?AV?$_List_unchecked_iterator@V?$_List_val@U?$_List_simple_types@U?$pair@$$CBI_N@std@@@std@@@std@@@0@ABV?$_List_iterator@V?$_List_val@U?$_List_simple_types@U?$pair@$$CBI_N@std@@@std@@@std@@@0@@Z
	??$_Unchecked@V?$_Vector_val@U?$_Simple_types@PAVGlyph@BookEngine@@@std@@@std@@@std@@YAPAPAVGlyph@BookEngine@@ABV?$_Vector_iterator@V?$_Vector_val@U?$_Simple_types@PAVGlyph@BookEngine@@@std@@@std@@@0@@Z
	??$_Unfancy@$$CBD@std@@YAPBDPBD@Z
	??$_Unfancy@D@std@@YAPADPAD@Z
	??$_Unfancy@H@std@@YAPAHPAH@Z
	??$_Unfancy@I@std@@YAPAIPAI@Z
	??$_Unfancy@K@std@@YAPAKPAK@Z
	??$_Unfancy@PAVIScreen@BookEngine@@@std@@YAPAPAVIScreen@BookEngine@@PAPAV12@@Z
	??$_Unfancy@PAVParticleBatch2D@BookEngine@@@std@@YAPAPAVParticleBatch2D@BookEngine@@PAPAV12@@Z
	??$_Unfancy@U?$tvec2@M$0A@@glm@@@std@@YAPAU?$tvec2@M$0A@@glm@@PAU12@@Z
	??$_Unfancy@U?$tvec3@M$0A@@glm@@@std@@YAPAU?$tvec3@M$0A@@glm@@PAU12@@Z
	??$_Unfancy@U?$tvec4@M$0A@@glm@@@std@@YAPAU?$tvec4@M$0A@@glm@@PAU12@@Z
	??$_Unfancy@UVertex2D@BookEngine@@@std@@YAPAUVertex2D@BookEngine@@PAU12@@Z
	??$_Unfancy@U_Container_proxy@std@@@std@@YAPAU_Container_proxy@0@PAU10@@Z
	??$_Unfancy@V?$_List_unchecked_iterator@V?$_List_val@U?$_List_simple_types@U?$pair@$$CBI_N@std@@@std@@@std@@@std@@@std@@YAPAV?$_List_unchecked_iterator@V?$_List_val@U?$_List_simple_types@U?$pair@$$CBI_N@std@@@std@@@std@@@0@PAV10@@Z
	??$_Unfancy@VBatchRenderr@BookEngine@@@std@@YAPAVBatchRenderr@BookEngine@@PAV12@@Z
	??$_Unfancy@VGlyph@BookEngine@@@std@@YAPAVGlyph@BookEngine@@PAV12@@Z
	??$_Unfancy_maybe_null@UVertex2D@BookEngine@@@std@@YAPAUVertex2D@BookEngine@@PAU12@@Z
	??$_Ungetc@D@std@@YA_NABDPAU_iobuf@@@Z
	??$_Uninit_alloc_fill_n1@PAKIV?$allocator@K@std@@@std@@YAPAKPAKIABKAAV?$allocator@K@0@U?$integral_constant@_N$0A@@0@@Z
	??$_Uninit_alloc_fill_n1@PAV?$_List_unchecked_iterator@V?$_List_val@U?$_List_simple_types@U?$pair@$$CBI_N@std@@@std@@@std@@@std@@IV?$allocator@V?$_List_unchecked_iterator@V?$_List_val@U?$_List_simple_types@U?$pair@$$CBI_N@std@@@std@@@std@@@std@@@2@@std@@YAPAV?$_List_unchecked_iterator@V?$_List_val@U?$_List_simple_types@U?$pair@$$CBI_N@std@@@std@@@std@@@0@PAV10@IABV10@AAV?$allocator@V?$_List_unchecked_iterator@V?$_List_val@U?$_List_simple_types@U?$pair@$$CBI_N@std@@@std@@@std@@@std@@@0@U?$integral_constant@_N$0A@@0@@Z
	??$_Uninitialized_copy@PAEPAEV?$allocator@E@std@@@std@@YAPAEPAE00AAV?$allocator@E@0@@Z
	??$_Uninitialized_copy@PBEPAEV?$allocator@E@std@@@std@@YAPAEPBE0PAEAAV?$allocator@E@0@@Z
	??$_Uninitialized_copy_al_unchecked@$$CBEEV?$allocator@E@std@@@std@@YAPAEPBE0PAEAAV?$allocator@E@0@U_Really_trivial_ptr_iterator_tag@0@U?$integral_constant@_N$00@0@@Z
	??$_Uninitialized_copy_al_unchecked@EEV?$allocator@E@std@@@std@@YAPAEPAE00AAV?$allocator@E@0@U_Really_trivial_ptr_iterator_tag@0@U?$integral_constant@_N$00@0@@Z
	??$_Uninitialized_fill_n@PAKIV?$allocator@K@std@@@std@@YAPAKPAKIABKAAV?$allocator@K@0@@Z
	??$_Uninitialized_fill_n@PAV?$_List_unchecked_iterator@V?$_List_val@U?$_List_simple_types@U?$pair@$$CBI_N@std@@@std@@@std@@@std@@IV?$allocator@V?$_List_unchecked_iterator@V?$_List_val@U?$_List_simple_types@U?$pair@$$CBI_N@std@@@std@@@std@@@std@@@2@@std@@YAPAV?$_List_unchecked_iterator@V?$_List_val@U?$_List_simple_types@U?$pair@$$CBI_N@std@@@std@@@std@@@0@PAV10@IABV10@AAV?$allocator@V?$_List_unchecked_iterator@V?$_List_val@U?$_List_simple_types@U?$pair@$$CBI_N@std@@@std@@@std@@@std@@@0@@Z
	??$_Uninitialized_move@PAEPAEV?$allocator@E@std@@@std@@YAPAEPAE00AAV?$allocator@E@0@@Z
	??$_Uninitialized_move@PAHPAHV?$allocator@H@std@@@std@@YAPAHPAH00AAV?$allocator@H@0@@Z
	??$_Uninitialized_move@PAIPAIV?$allocator@I@std@@@std@@YAPAIPAI00AAV?$allocator@I@0@@Z
	??$_Uninitialized_move@PAKPAKV?$allocator@K@std@@@std@@YAPAKPAK00AAV?$allocator@K@0@@Z
	??$_Uninitialized_move@PAPAVGlyph@BookEngine@@PAPAV12@V?$allocator@PAVGlyph@BookEngine@@@std@@@std@@YAPAPAVGlyph@BookEngine@@PAPAV12@00AAV?$allocator@PAVGlyph@BookEngine@@@0@@Z
	??$_Uninitialized_move@PAPAVIScreen@BookEngine@@PAPAV12@V?$allocator@PAVIScreen@BookEngine@@@std@@@std@@YAPAPAVIScreen@BookEngine@@PAPAV12@00AAV?$allocator@PAVIScreen@BookEngine@@@0@@Z
	??$_Uninitialized_move@PAPAVParticleBatch2D@BookEngine@@PAPAV12@V?$allocator@PAVParticleBatch2D@BookEngine@@@std@@@std@@YAPAPAVParticleBatch2D@BookEngine@@PAPAV12@00AAV?$allocator@PAVParticleBatch2D@BookEngine@@@0@@Z
	??$_Uninitialized_move@PAU?$tvec2@M$0A@@glm@@PAU12@V?$allocator@U?$tvec2@M$0A@@glm@@@std@@@std@@YAPAU?$tvec2@M$0A@@glm@@PAU12@00AAV?$allocator@U?$tvec2@M$0A@@glm@@@0@@Z
	??$_Uninitialized_move@PAU?$tvec3@M$0A@@glm@@PAU12@V?$allocator@U?$tvec3@M$0A@@glm@@@std@@@std@@YAPAU?$tvec3@M$0A@@glm@@PAU12@00AAV?$allocator@U?$tvec3@M$0A@@glm@@@0@@Z
	??$_Uninitialized_move@PAU?$tvec4@M$0A@@glm@@PAU12@V?$allocator@U?$tvec4@M$0A@@glm@@@std@@@std@@YAPAU?$tvec4@M$0A@@glm@@PAU12@00AAV?$allocator@U?$tvec4@M$0A@@glm@@@0@@Z
	??$_Uninitialized_move@PAUVertex2D@BookEngine@@PAU12@V?$allocator@UVertex2D@BookEngine@@@std@@@std@@YAPAUVertex2D@BookEngine@@PAU12@00AAV?$allocator@UVertex2D@BookEngine@@@0@@Z
	??$_Uninitialized_move@PAV?$_List_unchecked_iterator@V?$_List_val@U?$_List_simple_types@U?$pair@$$CBI_N@std@@@std@@@std@@@std@@PAV12@V?$allocator@V?$_List_unchecked_iterator@V?$_List_val@U?$_List_simple_types@U?$pair@$$CBI_N@std@@@std@@@std@@@std@@@2@@std@@YAPAV?$_List_unchecked_iterator@V?$_List_val@U?$_List_simple_types@U?$pair@$$CBI_N@std@@@std@@@std@@@0@PAV10@00AAV?$allocator@V?$_List_unchecked_iterator@V?$_List_val@U?$_List_simple_types@U?$pair@$$CBI_N@std@@@std@@@std@@@std@@@0@@Z
	??$_Uninitialized_move@PAVBatchRenderr@BookEngine@@PAV12@V?$allocator@VBatchRenderr@BookEngine@@@std@@@std@@YAPAVBatchRenderr@BookEngine@@PAV12@00AAV?$allocator@VBatchRenderr@BookEngine@@@0@@Z
	??$_Uninitialized_move@PAVGlyph@BookEngine@@PAV12@V?$allocator@VGlyph@BookEngine@@@std@@@std@@YAPAVGlyph@BookEngine@@PAV12@00AAV?$allocator@VGlyph@BookEngine@@@0@@Z
	??$_Uninitialized_move_al_unchecked@EEV?$allocator@E@std@@@std@@YAPAEPAE00AAV?$allocator@E@0@U_Really_trivial_ptr_iterator_tag@0@U?$integral_constant@_N$00@0@@Z
	??$_Uninitialized_move_al_unchecked@HHV?$allocator@H@std@@@std@@YAPAHPAH00AAV?$allocator@H@0@U_Really_trivial_ptr_iterator_tag@0@U?$integral_constant@_N$00@0@@Z
	??$_Uninitialized_move_al_unchecked@IIV?$allocator@I@std@@@std@@YAPAIPAI00AAV?$allocator@I@0@U_Really_trivial_ptr_iterator_tag@0@U?$integral_constant@_N$00@0@@Z
	??$_Uninitialized_move_al_unchecked@KKV?$allocator@K@std@@@std@@YAPAKPAK00AAV?$allocator@K@0@U_Really_trivial_ptr_iterator_tag@0@U?$integral_constant@_N$00@0@@Z
	??$_Uninitialized_move_al_unchecked@PAU?$tvec2@M$0A@@glm@@PAU12@V?$allocator@U?$tvec2@M$0A@@glm@@@std@@@std@@YAPAU?$tvec2@M$0A@@glm@@PAU12@00AAV?$allocator@U?$tvec2@M$0A@@glm@@@0@U_General_ptr_iterator_tag@0@U_Unused_parameter@0@@Z
	??$_Uninitialized_move_al_unchecked@PAU?$tvec3@M$0A@@glm@@PAU12@V?$allocator@U?$tvec3@M$0A@@glm@@@std@@@std@@YAPAU?$tvec3@M$0A@@glm@@PAU12@00AAV?$allocator@U?$tvec3@M$0A@@glm@@@0@U_General_ptr_iterator_tag@0@U_Unused_parameter@0@@Z
	??$_Uninitialized_move_al_unchecked@PAU?$tvec4@M$0A@@glm@@PAU12@V?$allocator@U?$tvec4@M$0A@@glm@@@std@@@std@@YAPAU?$tvec4@M$0A@@glm@@PAU12@00AAV?$allocator@U?$tvec4@M$0A@@glm@@@0@U_General_ptr_iterator_tag@0@U_Unused_parameter@0@@Z
	??$_Uninitialized_move_al_unchecked@PAUVertex2D@BookEngine@@PAU12@V?$allocator@UVertex2D@BookEngine@@@std@@@std@@YAPAUVertex2D@BookEngine@@PAU12@00AAV?$allocator@UVertex2D@BookEngine@@@0@U_General_ptr_iterator_tag@0@U_Unused_parameter@0@@Z
	??$_Uninitialized_move_al_unchecked@PAV?$_List_unchecked_iterator@V?$_List_val@U?$_List_simple_types@U?$pair@$$CBI_N@std@@@std@@@std@@@std@@PAV12@V?$allocator@V?$_List_unchecked_iterator@V?$_List_val@U?$_List_simple_types@U?$pair@$$CBI_N@std@@@std@@@std@@@std@@@2@@std@@YAPAV?$_List_unchecked_iterator@V?$_List_val@U?$_List_simple_types@U?$pair@$$CBI_N@std@@@std@@@std@@@0@PAV10@00AAV?$allocator@V?$_List_unchecked_iterator@V?$_List_val@U?$_List_simple_types@U?$pair@$$CBI_N@std@@@std@@@std@@@std@@@0@U_General_ptr_iterator_tag@0@U_Unused_parameter@0@@Z
	??$_Uninitialized_move_al_unchecked@PAVBatchRenderr@BookEngine@@PAV12@V?$allocator@VBatchRenderr@BookEngine@@@std@@@std@@YAPAVBatchRenderr@BookEngine@@PAV12@00AAV?$allocator@VBatchRenderr@BookEngine@@@0@U_General_ptr_iterator_tag@0@U_Unused_parameter@0@@Z
	??$_Uninitialized_move_al_unchecked@PAVGlyph@BookEngine@@PAV12@V?$allocator@PAVGlyph@BookEngine@@@std@@@std@@YAPAPAVGlyph@BookEngine@@PAPAV12@00AAV?$allocator@PAVGlyph@BookEngine@@@0@U_Really_trivial_ptr_iterator_tag@0@U?$integral_constant@_N$00@0@@Z
	??$_Uninitialized_move_al_unchecked@PAVGlyph@BookEngine@@PAV12@V?$allocator@VGlyph@BookEngine@@@std@@@std@@YAPAVGlyph@BookEngine@@PAV12@00AAV?$allocator@VGlyph@BookEngine@@@0@U_General_ptr_iterator_tag@0@U_Unused_parameter@0@@Z
	??$_Uninitialized_move_al_unchecked@PAVIScreen@BookEngine@@PAV12@V?$allocator@PAVIScreen@BookEngine@@@std@@@std@@YAPAPAVIScreen@BookEngine@@PAPAV12@00AAV?$allocator@PAVIScreen@BookEngine@@@0@U_Really_trivial_ptr_iterator_tag@0@U?$integral_constant@_N$00@0@@Z
	??$_Uninitialized_move_al_unchecked@PAVParticleBatch2D@BookEngine@@PAV12@V?$allocator@PAVParticleBatch2D@BookEngine@@@std@@@std@@YAPAPAVParticleBatch2D@BookEngine@@PAPAV12@00AAV?$allocator@PAVParticleBatch2D@BookEngine@@@0@U_Really_trivial_ptr_iterator_tag@0@U?$integral_constant@_N$00@0@@Z
	??$_Uninitialized_move_unchecked1@PAPAVGlyph@BookEngine@@PAPAV12@@std@@YAPAPAVGlyph@BookEngine@@PAPAV12@00U_Really_trivial_ptr_iterator_tag@0@@Z
	??$_Uninitialized_move_unchecked@PAPAVGlyph@BookEngine@@PAPAV12@@std@@YAPAPAVGlyph@BookEngine@@PAPAV12@00@Z
	??$_Uninitialized_value_construct_n1@PADIV?$allocator@D@std@@@std@@YAPADPADIAAV?$allocator@D@0@U?$integral_constant@_N$00@0@@Z
	??$_Uninitialized_value_construct_n1@PAEIV?$allocator@E@std@@@std@@YAPAEPAEIAAV?$allocator@E@0@U?$integral_constant@_N$00@0@@Z
	??$_Uninitialized_value_construct_n1@PAKIV?$allocator@K@std@@@std@@YAPAKPAKIAAV?$allocator@K@0@U?$integral_constant@_N$00@0@@Z
	??$_Uninitialized_value_construct_n1@PAPAVGlyph@BookEngine@@IV?$allocator@PAVGlyph@BookEngine@@@std@@@std@@YAPAPAVGlyph@BookEngine@@PAPAV12@IAAV?$allocator@PAVGlyph@BookEngine@@@0@U?$integral_constant@_N$00@0@@Z
	??$_Uninitialized_value_construct_n1@PAPAVIScreen@BookEngine@@IV?$allocator@PAVIScreen@BookEngine@@@std@@@std@@YAPAPAVIScreen@BookEngine@@PAPAV12@IAAV?$allocator@PAVIScreen@BookEngine@@@0@U?$integral_constant@_N$00@0@@Z
	??$_Uninitialized_value_construct_n1@PAUVertex2D@BookEngine@@IV?$allocator@UVertex2D@BookEngine@@@std@@@std@@YAPAUVertex2D@BookEngine@@PAU12@IAAV?$allocator@UVertex2D@BookEngine@@@0@U?$integral_constant@_N$0A@@0@@Z
	??$_Uninitialized_value_construct_n@PADIV?$allocator@D@std@@@std@@YAPADPADIAAV?$allocator@D@0@@Z
	??$_Uninitialized_value_construct_n@PAEIV?$allocator@E@std@@@std@@YAPAEPAEIAAV?$allocator@E@0@@Z
	??$_Uninitialized_value_construct_n@PAKIV?$allocator@K@std@@@std@@YAPAKPAKIAAV?$allocator@K@0@@Z
	??$_Uninitialized_value_construct_n@PAPAVGlyph@BookEngine@@IV?$allocator@PAVGlyph@BookEngine@@@std@@@std@@YAPAPAVGlyph@BookEngine@@PAPAV12@IAAV?$allocator@PAVGlyph@BookEngine@@@0@@Z
	??$_Uninitialized_value_construct_n@PAPAVIScreen@BookEngine@@IV?$allocator@PAVIScreen@BookEngine@@@std@@@std@@YAPAPAVIScreen@BookEngine@@PAPAV12@IAAV?$allocator@PAVIScreen@BookEngine@@@0@@Z
	??$_Uninitialized_value_construct_n@PAUVertex2D@BookEngine@@IV?$allocator@UVertex2D@BookEngine@@@std@@@std@@YAPAUVertex2D@BookEngine@@PAU12@IAAV?$allocator@UVertex2D@BookEngine@@@0@@Z
	??$_Upper_bound_unchecked@PAPAVGlyph@BookEngine@@PAV12@P6A_NPAV12@0@Z@std@@YAPAPAVGlyph@BookEngine@@PAPAV12@0ABQAV12@P6A_NPAV12@2@Z@Z
	??$_Zero_range@PAD@std@@YAPADPAD0@Z
	??$_Zero_range@PAE@std@@YAPAEPAE0@Z
	??$_Zero_range@PAK@std@@YAPAKPAK0@Z
	??$_Zero_range@PAPAVGlyph@BookEngine@@@std@@YAPAPAVGlyph@BookEngine@@PAPAV12@0@Z
	??$_Zero_range@PAPAVIScreen@BookEngine@@@std@@YAPAPAVIScreen@BookEngine@@PAPAV12@0@Z
	??$__vcrt_va_start_verify_argument_type@QBD@@YAXXZ
	??$abs@M@glm@@YAMM@Z
	??$addressof@$$CBV?$_List_val@U?$_List_simple_types@U?$pair@$$CBI_N@std@@@std@@@std@@@std@@YAPBV?$_List_val@U?$_List_simple_types@U?$pair@$$CBI_N@std@@@std@@@0@ABV10@@Z
	??$addressof@D@std@@YAPADAAD@Z
	??$addressof@PAD@std@@YAPAPADAAPAD@Z
	??$addressof@PAU?$_List_node@U?$pair@$$CBI_N@std@@PAX@std@@@std@@YAPAPAU?$_List_node@U?$pair@$$CBI_N@std@@PAX@0@AAPAU10@@Z
	??$addressof@PAU?$_Tree_node@U?$pair@$$CBV?$basic_string@DU?$char_traits@D@std@@V?$allocator@D@2@@std@@PAUMix_Chunk@@@std@@PAX@std@@@std@@YAPAPAU?$_Tree_node@U?$pair@$$CBV?$basic_string@DU?$char_traits@D@std@@V?$allocator@D@2@@std@@PAUMix_Chunk@@@std@@PAX@0@AAPAU10@@Z
	??$addressof@PAU?$_Tree_node@U?$pair@$$CBV?$basic_string@DU?$char_traits@D@std@@V?$allocator@D@2@@std@@PAU_Mix_Music@@@std@@PAX@std@@@std@@YAPAPAU?$_Tree_node@U?$pair@$$CBV?$basic_string@DU?$char_traits@D@std@@V?$allocator@D@2@@std@@PAU_Mix_Music@@@std@@PAX@0@AAPAU10@@Z
	??$addressof@PAU?$_Tree_node@U?$pair@$$CBV?$basic_string@DU?$char_traits@D@std@@V?$allocator@D@2@@std@@UGLTexture@BookEngine@@@std@@PAX@std@@@std@@YAPAPAU?$_Tree_node@U?$pair@$$CBV?$basic_string@DU?$char_traits@D@std@@V?$allocator@D@2@@std@@UGLTexture@BookEngine@@@std@@PAX@0@AAPAU10@@Z
	??$addressof@PAVGlyph@BookEngine@@@std@@YAPAPAVGlyph@BookEngine@@AAPAV12@@Z
	??$addressof@U?$_Temporary_range@PAVGlyph@BookEngine@@@std@@@std@@YAPAU?$_Temporary_range@PAVGlyph@BookEngine@@@0@AAU10@@Z
	??$addressof@U?$pair@$$CBI_N@std@@@std@@YAPAU?$pair@$$CBI_N@0@AAU10@@Z
	??$addressof@U?$pair@$$CBV?$basic_string@DU?$char_traits@D@std@@V?$allocator@D@2@@std@@PAUMix_Chunk@@@std@@@std@@YAPAU?$pair@$$CBV?$basic_string@DU?$char_traits@D@std@@V?$allocator@D@2@@std@@PAUMix_Chunk@@@0@AAU10@@Z
	??$addressof@U?$pair@$$CBV?$basic_string@DU?$char_traits@D@std@@V?$allocator@D@2@@std@@PAU_Mix_Music@@@std@@@std@@YAPAU?$pair@$$CBV?$basic_string@DU?$char_traits@D@std@@V?$allocator@D@2@@std@@PAU_Mix_Music@@@0@AAU10@@Z
	??$addressof@U?$pair@$$CBV?$basic_string@DU?$char_traits@D@std@@V?$allocator@D@2@@std@@UGLTexture@BookEngine@@@std@@@std@@YAPAU?$pair@$$CBV?$basic_string@DU?$char_traits@D@std@@V?$allocator@D@2@@std@@UGLTexture@BookEngine@@@0@AAU10@@Z
	??$addressof@V?$_List_val@U?$_List_simple_types@U?$pair@$$CBI_N@std@@@std@@@std@@@std@@YAPAV?$_List_val@U?$_List_simple_types@U?$pair@$$CBI_N@std@@@std@@@0@AAV10@@Z
	??$addressof@V?$_String_val@U?$_Simple_types@D@std@@@std@@@std@@YAPAV?$_String_val@U?$_Simple_types@D@std@@@0@AAV10@@Z
	??$addressof@V?$_Tree_val@U?$_Tree_simple_types@U?$pair@$$CBV?$basic_string@DU?$char_traits@D@std@@V?$allocator@D@2@@std@@PAUMix_Chunk@@@std@@@std@@@std@@@std@@YAPAV?$_Tree_val@U?$_Tree_simple_types@U?$pair@$$CBV?$basic_string@DU?$char_traits@D@std@@V?$allocator@D@2@@std@@PAUMix_Chunk@@@std@@@std@@@0@AAV10@@Z
	??$addressof@V?$_Tree_val@U?$_Tree_simple_types@U?$pair@$$CBV?$basic_string@DU?$char_traits@D@std@@V?$allocator@D@2@@std@@PAU_Mix_Music@@@std@@@std@@@std@@@std@@YAPAV?$_Tree_val@U?$_Tree_simple_types@U?$pair@$$CBV?$basic_string@DU?$char_traits@D@std@@V?$allocator@D@2@@std@@PAU_Mix_Music@@@std@@@std@@@0@AAV10@@Z
	??$addressof@V?$_Tree_val@U?$_Tree_simple_types@U?$pair@$$CBV?$basic_string@DU?$char_traits@D@std@@V?$allocator@D@2@@std@@UGLTexture@BookEngine@@@std@@@std@@@std@@@std@@YAPAV?$_Tree_val@U?$_Tree_simple_types@U?$pair@$$CBV?$basic_string@DU?$char_traits@D@std@@V?$allocator@D@2@@std@@UGLTexture@BookEngine@@@std@@@std@@@0@AAV10@@Z
	??$addressof@V?$_Vector_val@U?$_Simple_types@D@std@@@std@@@std@@YAPAV?$_Vector_val@U?$_Simple_types@D@std@@@0@AAV10@@Z
	??$addressof@V?$_Vector_val@U?$_Simple_types@E@std@@@std@@@std@@YAPAV?$_Vector_val@U?$_Simple_types@E@std@@@0@AAV10@@Z
	??$addressof@V?$_Vector_val@U?$_Simple_types@H@std@@@std@@@std@@YAPAV?$_Vector_val@U?$_Simple_types@H@std@@@0@AAV10@@Z
	??$addressof@V?$_Vector_val@U?$_Simple_types@I@std@@@std@@@std@@YAPAV?$_Vector_val@U?$_Simple_types@I@std@@@0@AAV10@@Z
	??$addressof@V?$_Vector_val@U?$_Simple_types@K@std@@@std@@@std@@YAPAV?$_Vector_val@U?$_Simple_types@K@std@@@0@AAV10@@Z
	??$addressof@V?$_Vector_val@U?$_Simple_types@PAVGlyph@BookEngine@@@std@@@std@@@std@@YAPAV?$_Vector_val@U?$_Simple_types@PAVGlyph@BookEngine@@@std@@@0@AAV10@@Z
	??$addressof@V?$_Vector_val@U?$_Simple_types@PAVIScreen@BookEngine@@@std@@@std@@@std@@YAPAV?$_Vector_val@U?$_Simple_types@PAVIScreen@BookEngine@@@std@@@0@AAV10@@Z
	??$addressof@V?$_Vector_val@U?$_Simple_types@PAVParticleBatch2D@BookEngine@@@std@@@std@@@std@@YAPAV?$_Vector_val@U?$_Simple_types@PAVParticleBatch2D@BookEngine@@@std@@@0@AAV10@@Z
	??$addressof@V?$_Vector_val@U?$_Simple_types@U?$tvec2@M$0A@@glm@@@std@@@std@@@std@@YAPAV?$_Vector_val@U?$_Simple_types@U?$tvec2@M$0A@@glm@@@std@@@0@AAV10@@Z
	??$addressof@V?$_Vector_val@U?$_Simple_types@U?$tvec3@M$0A@@glm@@@std@@@std@@@std@@YAPAV?$_Vector_val@U?$_Simple_types@U?$tvec3@M$0A@@glm@@@std@@@0@AAV10@@Z
	??$addressof@V?$_Vector_val@U?$_Simple_types@U?$tvec4@M$0A@@glm@@@std@@@std@@@std@@YAPAV?$_Vector_val@U?$_Simple_types@U?$tvec4@M$0A@@glm@@@std@@@0@AAV10@@Z
	??$addressof@V?$_Vector_val@U?$_Simple_types@UVertex2D@BookEngine@@@std@@@std@@@std@@YAPAV?$_Vector_val@U?$_Simple_types@UVertex2D@BookEngine@@@std@@@0@AAV10@@Z
	??$addressof@V?$_Vector_val@U?$_Simple_types@V?$_List_unchecked_iterator@V?$_List_val@U?$_List_simple_types@U?$pair@$$CBI_N@std@@@std@@@std@@@std@@@std@@@std@@@std@@YAPAV?$_Vector_val@U?$_Simple_types@V?$_List_unchecked_iterator@V?$_List_val@U?$_List_simple_types@U?$pair@$$CBI_N@std@@@std@@@std@@@std@@@std@@@0@AAV10@@Z
	??$addressof@V?$_Vector_val@U?$_Simple_types@VBatchRenderr@BookEngine@@@std@@@std@@@std@@YAPAV?$_Vector_val@U?$_Simple_types@VBatchRenderr@BookEngine@@@std@@@0@AAV10@@Z
	??$addressof@V?$_Vector_val@U?$_Simple_types@VGlyph@BookEngine@@@std@@@std@@@std@@YAPAV?$_Vector_val@U?$_Simple_types@VGlyph@BookEngine@@@std@@@0@AAV10@@Z
	??$addressof@V?$unique_ptr@VScreenList@BookEngine@@U?$default_delete@VScreenList@BookEngine@@@std@@@std@@@std@@YAPAV?$unique_ptr@VScreenList@BookEngine@@U?$default_delete@VScreenList@BookEngine@@@std@@@0@AAV10@@Z
	??$advance@PAPAVGlyph@BookEngine@@H@std@@YAXAAPAPAVGlyph@BookEngine@@H@Z
	??$back_inserter@U?$_Temporary_range@PAVGlyph@BookEngine@@@std@@@std@@YA?AV?$back_insert_iterator@U?$_Temporary_range@PAVGlyph@BookEngine@@@std@@@0@AAU?$_Temporary_range@PAVGlyph@BookEngine@@@0@@Z
	??$component_count@U?$tvec3@M$0A@@glm@@@detail@glm@@YAHABU?$tvec3@M$0A@@1@@Z
	??$component_count@U?$tvec4@M$0A@@glm@@@detail@glm@@YAHABU?$tvec4@M$0A@@1@@Z
	??$construct@HABH@?$_Default_allocator_traits@V?$allocator@H@std@@@std@@SAXAAV?$allocator@H@1@QAHABH@Z
	??$construct@IABI@?$_Default_allocator_traits@V?$allocator@I@std@@@std@@SAXAAV?$allocator@I@1@QAIABI@Z
	??$construct@KABK@?$_Default_allocator_traits@V?$allocator@K@std@@@std@@SAXAAV?$allocator@K@1@QAKABK@Z
	??$construct@PADABQAD@?$_Default_allocator_traits@V?$allocator@D@std@@@std@@SAXAAV?$allocator@D@1@QAPADABQAD@Z
	??$construct@PAU?$_List_node@U?$pair@$$CBI_N@std@@PAX@std@@AAPAU12@@?$_Default_allocator_traits@V?$allocator@U?$_List_node@U?$pair@$$CBI_N@std@@PAX@std@@@std@@@std@@SAXAAV?$allocator@U?$_List_node@U?$pair@$$CBI_N@std@@PAX@std@@@1@QAPAU?$_List_node@U?$pair@$$CBI_N@std@@PAX@1@AAPAU31@@Z
	??$construct@PAU?$_Tree_node@U?$pair@$$CBV?$basic_string@DU?$char_traits@D@std@@V?$allocator@D@2@@std@@PAUMix_Chunk@@@std@@PAX@std@@AAPAU12@@?$_Default_allocator_traits@V?$allocator@U?$_Tree_node@U?$pair@$$CBV?$basic_string@DU?$char_traits@D@std@@V?$allocator@D@2@@std@@PAUMix_Chunk@@@std@@PAX@std@@@std@@@std@@SAXAAV?$allocator@U?$_Tree_node@U?$pair@$$CBV?$basic_string@DU?$char_traits@D@std@@V?$allocator@D@2@@std@@PAUMix_Chunk@@@std@@PAX@std@@@1@QAPAU?$_Tree_node@U?$pair@$$CBV?$basic_string@DU?$char_traits@D@std@@V?$allocator@D@2@@std@@PAUMix_Chunk@@@std@@PAX@1@AAPAU31@@Z
	??$construct@PAU?$_Tree_node@U?$pair@$$CBV?$basic_string@DU?$char_traits@D@std@@V?$allocator@D@2@@std@@PAU_Mix_Music@@@std@@PAX@std@@AAPAU12@@?$_Default_allocator_traits@V?$allocator@U?$_Tree_node@U?$pair@$$CBV?$basic_string@DU?$char_traits@D@std@@V?$allocator@D@2@@std@@PAU_Mix_Music@@@std@@PAX@std@@@std@@@std@@SAXAAV?$allocator@U?$_Tree_node@U?$pair@$$CBV?$basic_string@DU?$char_traits@D@std@@V?$allocator@D@2@@std@@PAU_Mix_Music@@@std@@PAX@std@@@1@QAPAU?$_Tree_node@U?$pair@$$CBV?$basic_string@DU?$char_traits@D@std@@V?$allocator@D@2@@std@@PAU_Mix_Music@@@std@@PAX@1@AAPAU31@@Z
	??$construct@PAU?$_Tree_node@U?$pair@$$CBV?$basic_string@DU?$char_traits@D@std@@V?$allocator@D@2@@std@@UGLTexture@BookEngine@@@std@@PAX@std@@AAPAU12@@?$_Default_allocator_traits@V?$allocator@U?$_Tree_node@U?$pair@$$CBV?$basic_string@DU?$char_traits@D@std@@V?$allocator@D@2@@std@@UGLTexture@BookEngine@@@std@@PAX@std@@@std@@@std@@SAXAAV?$allocator@U?$_Tree_node@U?$pair@$$CBV?$basic_string@DU?$char_traits@D@std@@V?$allocator@D@2@@std@@UGLTexture@BookEngine@@@std@@PAX@std@@@1@QAPAU?$_Tree_node@U?$pair@$$CBV?$basic_string@DU?$char_traits@D@std@@V?$allocator@D@2@@std@@UGLTexture@BookEngine@@@std@@PAX@1@AAPAU31@@Z
	??$construct@PAVIScreen@BookEngine@@ABQAV12@@?$_Default_allocator_traits@V?$allocator@PAVIScreen@BookEngine@@@std@@@std@@SAXAAV?$allocator@PAVIScreen@BookEngine@@@1@QAPAVIScreen@BookEngine@@ABQAV34@@Z
	??$construct@PAVParticleBatch2D@BookEngine@@ABQAV12@@?$_Default_allocator_traits@V?$allocator@PAVParticleBatch2D@BookEngine@@@std@@@std@@SAXAAV?$allocator@PAVParticleBatch2D@BookEngine@@@1@QAPAVParticleBatch2D@BookEngine@@ABQAV34@@Z
	??$construct@U?$pair@$$CBI_N@std@@ABUpiecewise_construct_t@2@V?$tuple@ABI@2@V?$tuple@$$V@2@@?$_Default_allocator_traits@V?$allocator@U?$_List_node@U?$pair@$$CBI_N@std@@PAX@std@@@std@@@std@@SAXAAV?$allocator@U?$_List_node@U?$pair@$$CBI_N@std@@PAX@std@@@1@QAU?$pair@$$CBI_N@1@ABUpiecewise_construct_t@1@$$QAV?$tuple@ABI@1@$$QAV?$tuple@$$V@1@@Z
	??$construct@U?$pair@$$CBV?$basic_string@DU?$char_traits@D@std@@V?$allocator@D@2@@std@@PAUMix_Chunk@@@std@@ABUpiecewise_construct_t@2@V?$tuple@ABV?$basic_string@DU?$char_traits@D@std@@V?$allocator@D@2@@std@@@2@V?$tuple@$$V@2@@?$_Default_allocator_traits@V?$allocator@U?$_Tree_node@U?$pair@$$CBV?$basic_string@DU?$char_traits@D@std@@V?$allocator@D@2@@std@@PAUMix_Chunk@@@std@@PAX@std@@@std@@@std@@SAXAAV?$allocator@U?$_Tree_node@U?$pair@$$CBV?$basic_string@DU?$char_traits@D@std@@V?$allocator@D@2@@std@@PAUMix_Chunk@@@std@@PAX@std@@@1@QAU?$pair@$$CBV?$basic_string@DU?$char_traits@D@std@@V?$allocator@D@2@@std@@PAUMix_Chunk@@@1@ABUpiecewise_construct_t@1@$$QAV?$tuple@ABV?$basic_string@DU?$char_traits@D@std@@V?$allocator@D@2@@std@@@1@$$QAV?$tuple@$$V@1@@Z
	??$construct@U?$pair@$$CBV?$basic_string@DU?$char_traits@D@std@@V?$allocator@D@2@@std@@PAU_Mix_Music@@@std@@ABUpiecewise_construct_t@2@V?$tuple@ABV?$basic_string@DU?$char_traits@D@std@@V?$allocator@D@2@@std@@@2@V?$tuple@$$V@2@@?$_Default_allocator_traits@V?$allocator@U?$_Tree_node@U?$pair@$$CBV?$basic_string@DU?$char_traits@D@std@@V?$allocator@D@2@@std@@PAU_Mix_Music@@@std@@PAX@std@@@std@@@std@@SAXAAV?$allocator@U?$_Tree_node@U?$pair@$$CBV?$basic_string@DU?$char_traits@D@std@@V?$allocator@D@2@@std@@PAU_Mix_Music@@@std@@PAX@std@@@1@QAU?$pair@$$CBV?$basic_string@DU?$char_traits@D@std@@V?$allocator@D@2@@std@@PAU_Mix_Music@@@1@ABUpiecewise_construct_t@1@$$QAV?$tuple@ABV?$basic_string@DU?$char_traits@D@std@@V?$allocator@D@2@@std@@@1@$$QAV?$tuple@$$V@1@@Z
	??$construct@U?$pair@$$CBV?$basic_string@DU?$char_traits@D@std@@V?$allocator@D@2@@std@@UGLTexture@BookEngine@@@std@@U?$pair@V?$basic_string@DU?$char_traits@D@std@@V?$allocator@D@2@@std@@UGLTexture@BookEngine@@@2@@?$_Default_allocator_traits@V?$allocator@U?$_Tree_node@U?$pair@$$CBV?$basic_string@DU?$char_traits@D@std@@V?$allocator@D@2@@std@@UGLTexture@BookEngine@@@std@@PAX@std@@@std@@@std@@SAXAAV?$allocator@U?$_Tree_node@U?$pair@$$CBV?$basic_string@DU?$char_traits@D@std@@V?$allocator@D@2@@std@@UGLTexture@BookEngine@@@std@@PAX@std@@@1@QAU?$pair@$$CBV?$basic_string@DU?$char_traits@D@std@@V?$allocator@D@2@@std@@UGLTexture@BookEngine@@@1@$$QAU?$pair@V?$basic_string@DU?$char_traits@D@std@@V?$allocator@D@2@@std@@UGLTexture@BookEngine@@@1@@Z
	??$construct@U?$tvec2@M$0A@@glm@@ABU12@@?$_Default_allocator_traits@V?$allocator@U?$tvec2@M$0A@@glm@@@std@@@std@@SAXAAV?$allocator@U?$tvec2@M$0A@@glm@@@1@QAU?$tvec2@M$0A@@glm@@ABU34@@Z
	??$construct@U?$tvec2@M$0A@@glm@@U12@@?$_Default_allocator_traits@V?$allocator@U?$tvec2@M$0A@@glm@@@std@@@std@@SAXAAV?$allocator@U?$tvec2@M$0A@@glm@@@1@QAU?$tvec2@M$0A@@glm@@$$QAU34@@Z
	??$construct@U?$tvec3@M$0A@@glm@@ABU12@@?$_Default_allocator_traits@V?$allocator@U?$tvec3@M$0A@@glm@@@std@@@std@@SAXAAV?$allocator@U?$tvec3@M$0A@@glm@@@1@QAU?$tvec3@M$0A@@glm@@ABU34@@Z
	??$construct@U?$tvec3@M$0A@@glm@@U12@@?$_Default_allocator_traits@V?$allocator@U?$tvec3@M$0A@@glm@@@std@@@std@@SAXAAV?$allocator@U?$tvec3@M$0A@@glm@@@1@QAU?$tvec3@M$0A@@glm@@$$QAU34@@Z
	??$construct@U?$tvec4@M$0A@@glm@@ABU12@@?$_Default_allocator_traits@V?$allocator@U?$tvec4@M$0A@@glm@@@std@@@std@@SAXAAV?$allocator@U?$tvec4@M$0A@@glm@@@1@QAU?$tvec4@M$0A@@glm@@ABU34@@Z
	??$construct@U?$tvec4@M$0A@@glm@@U12@@?$_Default_allocator_traits@V?$allocator@U?$tvec4@M$0A@@glm@@@std@@@std@@SAXAAV?$allocator@U?$tvec4@M$0A@@glm@@@1@QAU?$tvec4@M$0A@@glm@@$$QAU34@@Z
	??$construct@UVertex2D@BookEngine@@$$V@?$_Default_allocator_traits@V?$allocator@UVertex2D@BookEngine@@@std@@@std@@SAXAAV?$allocator@UVertex2D@BookEngine@@@1@QAUVertex2D@BookEngine@@@Z
	??$construct@UVertex2D@BookEngine@@U12@@?$_Default_allocator_traits@V?$allocator@UVertex2D@BookEngine@@@std@@@std@@SAXAAV?$allocator@UVertex2D@BookEngine@@@1@QAUVertex2D@BookEngine@@$$QAU34@@Z
	??$construct@U_Container_proxy@std@@U12@@?$_Default_allocator_traits@V?$allocator@U_Container_proxy@std@@@std@@@std@@SAXAAV?$allocator@U_Container_proxy@std@@@1@QAU_Container_proxy@1@$$QAU31@@Z
	??$construct@V?$_List_unchecked_iterator@V?$_List_val@U?$_List_simple_types@U?$pair@$$CBI_N@std@@@std@@@std@@@std@@ABV12@@?$_Default_allocator_traits@V?$allocator@V?$_List_unchecked_iterator@V?$_List_val@U?$_List_simple_types@U?$pair@$$CBI_N@std@@@std@@@std@@@std@@@std@@@std@@SAXAAV?$allocator@V?$_List_unchecked_iterator@V?$_List_val@U?$_List_simple_types@U?$pair@$$CBI_N@std@@@std@@@std@@@std@@@1@QAV?$_List_unchecked_iterator@V?$_List_val@U?$_List_simple_types@U?$pair@$$CBI_N@std@@@std@@@std@@@1@ABV31@@Z
	??$construct@V?$_List_unchecked_iterator@V?$_List_val@U?$_List_simple_types@U?$pair@$$CBI_N@std@@@std@@@std@@@std@@V12@@?$_Default_allocator_traits@V?$allocator@V?$_List_unchecked_iterator@V?$_List_val@U?$_List_simple_types@U?$pair@$$CBI_N@std@@@std@@@std@@@std@@@std@@@std@@SAXAAV?$allocator@V?$_List_unchecked_iterator@V?$_List_val@U?$_List_simple_types@U?$pair@$$CBI_N@std@@@std@@@std@@@std@@@1@QAV?$_List_unchecked_iterator@V?$_List_val@U?$_List_simple_types@U?$pair@$$CBI_N@std@@@std@@@std@@@1@$$QAV31@@Z
	??$construct@VBatchRenderr@BookEngine@@AAHHAAI@?$_Default_allocator_traits@V?$allocator@VBatchRenderr@BookEngine@@@std@@@std@@SAXAAV?$allocator@VBatchRenderr@BookEngine@@@1@QAVBatchRenderr@BookEngine@@AAH$$QAHAAI@Z
	??$construct@VBatchRenderr@BookEngine@@V12@@?$_Default_allocator_traits@V?$allocator@VBatchRenderr@BookEngine@@@std@@@std@@SAXAAV?$allocator@VBatchRenderr@BookEngine@@@1@QAVBatchRenderr@BookEngine@@$$QAV34@@Z
	??$construct@VGlyph@BookEngine@@ABU?$tvec4@M$0A@@glm@@ABU34@AAIAAMABUColorRGBA8@2@@?$_Default_allocator_traits@V?$allocator@VGlyph@BookEngine@@@std@@@std@@SAXAAV?$allocator@VGlyph@BookEngine@@@1@QAVGlyph@BookEngine@@ABU?$tvec4@M$0A@@glm@@2AAIAAMABUColorRGBA8@4@@Z
	??$construct@VGlyph@BookEngine@@ABU?$tvec4@M$0A@@glm@@ABU34@AAIAAMABUColorRGBA8@2@AAM@?$_Default_allocator_traits@V?$allocator@VGlyph@BookEngine@@@std@@@std@@SAXAAV?$allocator@VGlyph@BookEngine@@@1@QAVGlyph@BookEngine@@ABU?$tvec4@M$0A@@glm@@2AAIAAMABUColorRGBA8@4@4@Z
	??$construct@VGlyph@BookEngine@@V12@@?$_Default_allocator_traits@V?$allocator@VGlyph@BookEngine@@@std@@@std@@SAXAAV?$allocator@VGlyph@BookEngine@@@1@QAVGlyph@BookEngine@@$$QAV34@@Z
	??$cross@M$0A@@glm@@YA?AU?$tvec3@M$0A@@0@ABU10@0@Z
	??$destroy@H@?$_Default_allocator_traits@V?$allocator@H@std@@@std@@SAXAAV?$allocator@H@1@QAH@Z
	??$destroy@I@?$_Default_allocator_traits@V?$allocator@I@std@@@std@@SAXAAV?$allocator@I@1@QAI@Z
	??$destroy@PAD@?$_Default_allocator_traits@V?$allocator@D@std@@@std@@SAXAAV?$allocator@D@1@QAPAD@Z
	??$destroy@PAU?$_List_node@U?$pair@$$CBI_N@std@@PAX@std@@@?$_Default_allocator_traits@V?$allocator@U?$_List_node@U?$pair@$$CBI_N@std@@PAX@std@@@std@@@std@@SAXAAV?$allocator@U?$_List_node@U?$pair@$$CBI_N@std@@PAX@std@@@1@QAPAU?$_List_node@U?$pair@$$CBI_N@std@@PAX@1@@Z
	??$destroy@PAU?$_Tree_node@U?$pair@$$CBV?$basic_string@DU?$char_traits@D@std@@V?$allocator@D@2@@std@@PAUMix_Chunk@@@std@@PAX@std@@@?$_Default_allocator_traits@V?$allocator@U?$_Tree_node@U?$pair@$$CBV?$basic_string@DU?$char_traits@D@std@@V?$allocator@D@2@@std@@PAUMix_Chunk@@@std@@PAX@std@@@std@@@std@@SAXAAV?$allocator@U?$_Tree_node@U?$pair@$$CBV?$basic_string@DU?$char_traits@D@std@@V?$allocator@D@2@@std@@PAUMix_Chunk@@@std@@PAX@std@@@1@QAPAU?$_Tree_node@U?$pair@$$CBV?$basic_string@DU?$char_traits@D@std@@V?$allocator@D@2@@std@@PAUMix_Chunk@@@std@@PAX@1@@Z
	??$destroy@PAU?$_Tree_node@U?$pair@$$CBV?$basic_string@DU?$char_traits@D@std@@V?$allocator@D@2@@std@@PAU_Mix_Music@@@std@@PAX@std@@@?$_Default_allocator_traits@V?$allocator@U?$_Tree_node@U?$pair@$$CBV?$basic_string@DU?$char_traits@D@std@@V?$allocator@D@2@@std@@PAU_Mix_Music@@@std@@PAX@std@@@std@@@std@@SAXAAV?$allocator@U?$_Tree_node@U?$pair@$$CBV?$basic_string@DU?$char_traits@D@std@@V?$allocator@D@2@@std@@PAU_Mix_Music@@@std@@PAX@std@@@1@QAPAU?$_Tree_node@U?$pair@$$CBV?$basic_string@DU?$char_traits@D@std@@V?$allocator@D@2@@std@@PAU_Mix_Music@@@std@@PAX@1@@Z
	??$destroy@PAU?$_Tree_node@U?$pair@$$CBV?$basic_string@DU?$char_traits@D@std@@V?$allocator@D@2@@std@@UGLTexture@BookEngine@@@std@@PAX@std@@@?$_Default_allocator_traits@V?$allocator@U?$_Tree_node@U?$pair@$$CBV?$basic_string@DU?$char_traits@D@std@@V?$allocator@D@2@@std@@UGLTexture@BookEngine@@@std@@PAX@std@@@std@@@std@@SAXAAV?$allocator@U?$_Tree_node@U?$pair@$$CBV?$basic_string@DU?$char_traits@D@std@@V?$allocator@D@2@@std@@UGLTexture@BookEngine@@@std@@PAX@std@@@1@QAPAU?$_Tree_node@U?$pair@$$CBV?$basic_string@DU?$char_traits@D@std@@V?$allocator@D@2@@std@@UGLTexture@BookEngine@@@std@@PAX@1@@Z
	??$destroy@PAVIScreen@BookEngine@@@?$_Default_allocator_traits@V?$allocator@PAVIScreen@BookEngine@@@std@@@std@@SAXAAV?$allocator@PAVIScreen@BookEngine@@@1@QAPAVIScreen@BookEngine@@@Z
	??$destroy@PAVParticleBatch2D@BookEngine@@@?$_Default_allocator_traits@V?$allocator@PAVParticleBatch2D@BookEngine@@@std@@@std@@SAXAAV?$allocator@PAVParticleBatch2D@BookEngine@@@1@QAPAVParticleBatch2D@BookEngine@@@Z
	??$destroy@U?$pair@$$CBI_N@std@@@?$_Default_allocator_traits@V?$allocator@U?$_List_node@U?$pair@$$CBI_N@std@@PAX@std@@@std@@@std@@SAXAAV?$allocator@U?$_List_node@U?$pair@$$CBI_N@std@@PAX@std@@@1@QAU?$pair@$$CBI_N@1@@Z
	??$destroy@U?$pair@$$CBV?$basic_string@DU?$char_traits@D@std@@V?$allocator@D@2@@std@@PAUMix_Chunk@@@std@@@?$_Default_allocator_traits@V?$allocator@U?$_Tree_node@U?$pair@$$CBV?$basic_string@DU?$char_traits@D@std@@V?$allocator@D@2@@std@@PAUMix_Chunk@@@std@@PAX@std@@@std@@@std@@SAXAAV?$allocator@U?$_Tree_node@U?$pair@$$CBV?$basic_string@DU?$char_traits@D@std@@V?$allocator@D@2@@std@@PAUMix_Chunk@@@std@@PAX@std@@@1@QAU?$pair@$$CBV?$basic_string@DU?$char_traits@D@std@@V?$allocator@D@2@@std@@PAUMix_Chunk@@@1@@Z
	??$destroy@U?$pair@$$CBV?$basic_string@DU?$char_traits@D@std@@V?$allocator@D@2@@std@@PAU_Mix_Music@@@std@@@?$_Default_allocator_traits@V?$allocator@U?$_Tree_node@U?$pair@$$CBV?$basic_string@DU?$char_traits@D@std@@V?$allocator@D@2@@std@@PAU_Mix_Music@@@std@@PAX@std@@@std@@@std@@SAXAAV?$allocator@U?$_Tree_node@U?$pair@$$CBV?$basic_string@DU?$char_traits@D@std@@V?$allocator@D@2@@std@@PAU_Mix_Music@@@std@@PAX@std@@@1@QAU?$pair@$$CBV?$basic_string@DU?$char_traits@D@std@@V?$allocator@D@2@@std@@PAU_Mix_Music@@@1@@Z
	??$destroy@U?$pair@$$CBV?$basic_string@DU?$char_traits@D@std@@V?$allocator@D@2@@std@@UGLTexture@BookEngine@@@std@@@?$_Default_allocator_traits@V?$allocator@U?$_Tree_node@U?$pair@$$CBV?$basic_string@DU?$char_traits@D@std@@V?$allocator@D@2@@std@@UGLTexture@BookEngine@@@std@@PAX@std@@@std@@@std@@SAXAAV?$allocator@U?$_Tree_node@U?$pair@$$CBV?$basic_string@DU?$char_traits@D@std@@V?$allocator@D@2@@std@@UGLTexture@BookEngine@@@std@@PAX@std@@@1@QAU?$pair@$$CBV?$basic_string@DU?$char_traits@D@std@@V?$allocator@D@2@@std@@UGLTexture@BookEngine@@@1@@Z
	??$destroy@U?$tvec2@M$0A@@glm@@@?$_Default_allocator_traits@V?$allocator@U?$tvec2@M$0A@@glm@@@std@@@std@@SAXAAV?$allocator@U?$tvec2@M$0A@@glm@@@1@QAU?$tvec2@M$0A@@glm@@@Z
	??$destroy@U?$tvec3@M$0A@@glm@@@?$_Default_allocator_traits@V?$allocator@U?$tvec3@M$0A@@glm@@@std@@@std@@SAXAAV?$allocator@U?$tvec3@M$0A@@glm@@@1@QAU?$tvec3@M$0A@@glm@@@Z
	??$destroy@U?$tvec4@M$0A@@glm@@@?$_Default_allocator_traits@V?$allocator@U?$tvec4@M$0A@@glm@@@std@@@std@@SAXAAV?$allocator@U?$tvec4@M$0A@@glm@@@1@QAU?$tvec4@M$0A@@glm@@@Z
	??$destroy@U_Container_proxy@std@@@?$_Default_allocator_traits@V?$allocator@U_Container_proxy@std@@@std@@@std@@SAXAAV?$allocator@U_Container_proxy@std@@@1@QAU_Container_proxy@1@@Z
	??$destroy@VBatchRenderr@BookEngine@@@?$_Default_allocator_traits@V?$allocator@VBatchRenderr@BookEngine@@@std@@@std@@SAXAAV?$allocator@VBatchRenderr@BookEngine@@@1@QAVBatchRenderr@BookEngine@@@Z
	??$destroy@VGlyph@BookEngine@@@?$_Default_allocator_traits@V?$allocator@VGlyph@BookEngine@@@std@@@std@@SAXAAV?$allocator@VGlyph@BookEngine@@@1@QAVGlyph@BookEngine@@@Z
	??$distance@PAPAVGlyph@BookEngine@@@std@@YAHPAPAVGlyph@BookEngine@@0@Z
	??$distance@PBE@std@@YAHPBE0@Z
	??$dot@M$0A@Utvec2@glm@@@glm@@YAMABU?$tvec2@M$0A@@0@0@Z
	??$dot@M$0A@Utvec3@glm@@@glm@@YAMABU?$tvec3@M$0A@@0@0@Z
	??$emplace@ABUpiecewise_construct_t@std@@V?$tuple@ABI@2@V?$tuple@$$V@2@@?$_Hash@V?$_Umap_traits@I_NV?$_Uhash_compare@IU?$hash@I@std@@U?$equal_to@I@2@@std@@V?$allocator@U?$pair@$$CBI_N@std@@@2@$0A@@std@@@std@@QAE?AU?$pair@V?$_List_iterator@V?$_List_val@U?$_List_simple_types@U?$pair@$$CBI_N@std@@@std@@@std@@@std@@_N@1@ABUpiecewise_construct_t@1@$$QAV?$tuple@ABI@1@$$QAV?$tuple@$$V@1@@Z
	??$emplace@U?$pair@V?$basic_string@DU?$char_traits@D@std@@V?$allocator@D@2@@std@@UGLTexture@BookEngine@@@std@@@?$_Tree@V?$_Tmap_traits@V?$basic_string@DU?$char_traits@D@std@@V?$allocator@D@2@@std@@UGLTexture@BookEngine@@U?$less@V?$basic_string@DU?$char_traits@D@std@@V?$allocator@D@2@@std@@@2@V?$allocator@U?$pair@$$CBV?$basic_string@DU?$char_traits@D@std@@V?$allocator@D@2@@std@@UGLTexture@BookEngine@@@std@@@2@$0A@@std@@@std@@QAE?AU?$pair@V?$_Tree_iterator@V?$_Tree_val@U?$_Tree_simple_types@U?$pair@$$CBV?$basic_string@DU?$char_traits@D@std@@V?$allocator@D@2@@std@@UGLTexture@BookEngine@@@std@@@std@@@std@@@std@@_N@1@$$QAU?$pair@V?$basic_string@DU?$char_traits@D@std@@V?$allocator@D@2@@std@@UGLTexture@BookEngine@@@1@@Z
	??$emplace_back@AAHHAAI@?$vector@VBatchRenderr@BookEngine@@V?$allocator@VBatchRenderr@BookEngine@@@std@@@std@@QAEXAAH$$QAHAAI@Z
	??$emplace_back@ABH@?$vector@HV?$allocator@H@std@@@std@@QAEXABH@Z
	??$emplace_back@ABI@?$vector@IV?$allocator@I@std@@@std@@QAEXABI@Z
	??$emplace_back@ABQAVIScreen@BookEngine@@@?$vector@PAVIScreen@BookEngine@@V?$allocator@PAVIScreen@BookEngine@@@std@@@std@@QAEXABQAVIScreen@BookEngine@@@Z
	??$emplace_back@ABQAVParticleBatch2D@BookEngine@@@?$vector@PAVParticleBatch2D@BookEngine@@V?$allocator@PAVParticleBatch2D@BookEngine@@@std@@@std@@QAEXABQAVParticleBatch2D@BookEngine@@@Z
	??$emplace_back@ABU?$tvec2@M$0A@@glm@@@?$vector@U?$tvec2@M$0A@@glm@@V?$allocator@U?$tvec2@M$0A@@glm@@@std@@@std@@QAEXABU?$tvec2@M$0A@@glm@@@Z
	??$emplace_back@ABU?$tvec3@M$0A@@glm@@@?$vector@U?$tvec3@M$0A@@glm@@V?$allocator@U?$tvec3@M$0A@@glm@@@std@@@std@@QAEXABU?$tvec3@M$0A@@glm@@@Z
	??$emplace_back@ABU?$tvec4@M$0A@@glm@@@?$vector@U?$tvec4@M$0A@@glm@@V?$allocator@U?$tvec4@M$0A@@glm@@@std@@@std@@QAEXABU?$tvec4@M$0A@@glm@@@Z
	??$emplace_back@ABU?$tvec4@M$0A@@glm@@ABU12@AAIAAMABUColorRGBA8@BookEngine@@@?$vector@VGlyph@BookEngine@@V?$allocator@VGlyph@BookEngine@@@std@@@std@@QAEXABU?$tvec4@M$0A@@glm@@0AAIAAMABUColorRGBA8@BookEngine@@@Z
	??$emplace_back@ABU?$tvec4@M$0A@@glm@@ABU12@AAIAAMABUColorRGBA8@BookEngine@@AAM@?$vector@VGlyph@BookEngine@@V?$allocator@VGlyph@BookEngine@@@std@@@std@@QAEXABU?$tvec4@M$0A@@glm@@0AAIAAMABUColorRGBA8@BookEngine@@2@Z
	??$emplace_front@ABUpiecewise_construct_t@std@@V?$tuple@ABI@2@V?$tuple@$$V@2@@?$list@U?$pair@$$CBI_N@std@@V?$allocator@U?$pair@$$CBI_N@std@@@2@@std@@QAEXABUpiecewise_construct_t@1@$$QAV?$tuple@ABI@1@$$QAV?$tuple@$$V@1@@Z
	??$emplace_hint@ABUpiecewise_construct_t@std@@V?$tuple@ABV?$basic_string@DU?$char_traits@D@std@@V?$allocator@D@2@@std@@@2@V?$tuple@$$V@2@@?$_Tree@V?$_Tmap_traits@V?$basic_string@DU?$char_traits@D@std@@V?$allocator@D@2@@std@@PAUMix_Chunk@@U?$less@V?$basic_string@DU?$char_traits@D@std@@V?$allocator@D@2@@std@@@2@V?$allocator@U?$pair@$$CBV?$basic_string@DU?$char_traits@D@std@@V?$allocator@D@2@@std@@PAUMix_Chunk@@@std@@@2@$0A@@std@@@std@@QAE?AV?$_Tree_iterator@V?$_Tree_val@U?$_Tree_simple_types@U?$pair@$$CBV?$basic_string@DU?$char_traits@D@std@@V?$allocator@D@2@@std@@PAUMix_Chunk@@@std@@@std@@@std@@@1@V?$_Tree_const_iterator@V?$_Tree_val@U?$_Tree_simple_types@U?$pair@$$CBV?$basic_string@DU?$char_traits@D@std@@V?$allocator@D@2@@std@@PAUMix_Chunk@@@std@@@std@@@std@@@1@ABUpiecewise_construct_t@1@$$QAV?$tuple@ABV?$basic_string@DU?$char_traits@D@std@@V?$allocator@D@2@@std@@@1@$$QAV?$tuple@$$V@1@@Z
	??$emplace_hint@ABUpiecewise_construct_t@std@@V?$tuple@ABV?$basic_string@DU?$char_traits@D@std@@V?$allocator@D@2@@std@@@2@V?$tuple@$$V@2@@?$_Tree@V?$_Tmap_traits@V?$basic_string@DU?$char_traits@D@std@@V?$allocator@D@2@@std@@PAU_Mix_Music@@U?$less@V?$basic_string@DU?$char_traits@D@std@@V?$allocator@D@2@@std@@@2@V?$allocator@U?$pair@$$CBV?$basic_string@DU?$char_traits@D@std@@V?$allocator@D@2@@std@@PAU_Mix_Music@@@std@@@2@$0A@@std@@@std@@QAE?AV?$_Tree_iterator@V?$_Tree_val@U?$_Tree_simple_types@U?$pair@$$CBV?$basic_string@DU?$char_traits@D@std@@V?$allocator@D@2@@std@@PAU_Mix_Music@@@std@@@std@@@std@@@1@V?$_Tree_const_iterator@V?$_Tree_val@U?$_Tree_simple_types@U?$pair@$$CBV?$basic_string@DU?$char_traits@D@std@@V?$allocator@D@2@@std@@PAU_Mix_Music@@@std@@@std@@@std@@@1@ABUpiecewise_construct_t@1@$$QAV?$tuple@ABV?$basic_string@DU?$char_traits@D@std@@V?$allocator@D@2@@std@@@1@$$QAV?$tuple@$$V@1@@Z
	??$end@D$0BF@@std@@YAPADAAY0BF@D@Z
	??$endl@DU?$char_traits@D@std@@@std@@YAAAV?$basic_ostream@DU?$char_traits@D@std@@@0@AAV10@@Z
	??$erase@V?$_List_iterator@V?$_List_val@U?$_List_simple_types@U?$pair@$$CBI_N@std@@@std@@@std@@@std@@X@?$_Hash@V?$_Umap_traits@I_NV?$_Uhash_compare@IU?$hash@I@std@@U?$equal_to@I@2@@std@@V?$allocator@U?$pair@$$CBI_N@std@@@2@$0A@@std@@@std@@QAE?AV?$_List_iterator@V?$_List_val@U?$_List_simple_types@U?$pair@$$CBI_N@std@@@std@@@std@@@1@V21@@Z
	??$forward@$$T@std@@YA$$QA$$TAA$$T@Z
	??$forward@AAH@std@@YAAAHAAH@Z
	??$forward@AAI@std@@YAAAIAAI@Z
	??$forward@AAM@std@@YAAAMAAM@Z
	??$forward@AAPAPAVGlyph@BookEngine@@@std@@YAAAPAPAVGlyph@BookEngine@@AAPAPAV12@@Z
	??$forward@AAPAU?$_List_node@U?$pair@$$CBI_N@std@@PAX@std@@@std@@YAAAPAU?$_List_node@U?$pair@$$CBI_N@std@@PAX@0@AAPAU10@@Z
	??$forward@AAPAU?$_Tree_node@U?$pair@$$CBV?$basic_string@DU?$char_traits@D@std@@V?$allocator@D@2@@std@@PAUMix_Chunk@@@std@@PAX@std@@@std@@YAAAPAU?$_Tree_node@U?$pair@$$CBV?$basic_string@DU?$char_traits@D@std@@V?$allocator@D@2@@std@@PAUMix_Chunk@@@std@@PAX@0@AAPAU10@@Z
	??$forward@AAPAU?$_Tree_node@U?$pair@$$CBV?$basic_string@DU?$char_traits@D@std@@V?$allocator@D@2@@std@@PAU_Mix_Music@@@std@@PAX@std@@@std@@YAAAPAU?$_Tree_node@U?$pair@$$CBV?$basic_string@DU?$char_traits@D@std@@V?$allocator@D@2@@std@@PAU_Mix_Music@@@std@@PAX@0@AAPAU10@@Z
	??$forward@AAPAU?$_Tree_node@U?$pair@$$CBV?$basic_string@DU?$char_traits@D@std@@V?$allocator@D@2@@std@@UGLTexture@BookEngine@@@std@@PAX@std@@@std@@YAAAPAU?$_Tree_node@U?$pair@$$CBV?$basic_string@DU?$char_traits@D@std@@V?$allocator@D@2@@std@@UGLTexture@BookEngine@@@std@@PAX@0@AAPAU10@@Z
	??$forward@AAPAVScreenList@BookEngine@@@std@@YAAAPAVScreenList@BookEngine@@AAPAV12@@Z
	??$forward@AAU?$equal_to@I@std@@@std@@YAAAU?$equal_to@I@0@AAU10@@Z
	??$forward@AAU?$hash@I@std@@@std@@YAAAU?$hash@I@0@AAU10@@Z
	??$forward@AAU?$pair@$$CBI_N@std@@@std@@YAAAU?$pair@$$CBI_N@0@AAU10@@Z
	??$forward@AAU?$pair@$$CBV?$basic_string@DU?$char_traits@D@std@@V?$allocator@D@2@@std@@PAUMix_Chunk@@@std@@@std@@YAAAU?$pair@$$CBV?$basic_string@DU?$char_traits@D@std@@V?$allocator@D@2@@std@@PAUMix_Chunk@@@0@AAU10@@Z
	??$forward@AAU?$pair@$$CBV?$basic_string@DU?$char_traits@D@std@@V?$allocator@D@2@@std@@PAU_Mix_Music@@@std@@@std@@YAAAU?$pair@$$CBV?$basic_string@DU?$char_traits@D@std@@V?$allocator@D@2@@std@@PAU_Mix_Music@@@0@AAU10@@Z
	??$forward@AAU?$pair@$$CBV?$basic_string@DU?$char_traits@D@std@@V?$allocator@D@2@@std@@UGLTexture@BookEngine@@@std@@@std@@YAAAU?$pair@$$CBV?$basic_string@DU?$char_traits@D@std@@V?$allocator@D@2@@std@@UGLTexture@BookEngine@@@0@AAU10@@Z
	??$forward@AAUGLTexture@BookEngine@@@std@@YAAAUGLTexture@BookEngine@@AAU12@@Z
	??$forward@AAV?$_List_iterator@V?$_List_val@U?$_List_simple_types@U?$pair@$$CBI_N@std@@@std@@@std@@@std@@@std@@YAAAV?$_List_iterator@V?$_List_val@U?$_List_simple_types@U?$pair@$$CBI_N@std@@@std@@@std@@@0@AAV10@@Z
	??$forward@AAV?$_Tree_iterator@V?$_Tree_val@U?$_Tree_simple_types@U?$pair@$$CBV?$basic_string@DU?$char_traits@D@std@@V?$allocator@D@2@@std@@PAUMix_Chunk@@@std@@@std@@@std@@@std@@@std@@YAAAV?$_Tree_iterator@V?$_Tree_val@U?$_Tree_simple_types@U?$pair@$$CBV?$basic_string@DU?$char_traits@D@std@@V?$allocator@D@2@@std@@PAUMix_Chunk@@@std@@@std@@@std@@@0@AAV10@@Z
	??$forward@AAV?$_Tree_iterator@V?$_Tree_val@U?$_Tree_simple_types@U?$pair@$$CBV?$basic_string@DU?$char_traits@D@std@@V?$allocator@D@2@@std@@PAU_Mix_Music@@@std@@@std@@@std@@@std@@@std@@YAAAV?$_Tree_iterator@V?$_Tree_val@U?$_Tree_simple_types@U?$pair@$$CBV?$basic_string@DU?$char_traits@D@std@@V?$allocator@D@2@@std@@PAU_Mix_Music@@@std@@@std@@@std@@@0@AAV10@@Z
	??$forward@AAV?$_Tree_iterator@V?$_Tree_val@U?$_Tree_simple_types@U?$pair@$$CBV?$basic_string@DU?$char_traits@D@std@@V?$allocator@D@2@@std@@UGLTexture@BookEngine@@@std@@@std@@@std@@@std@@@std@@YAAAV?$_Tree_iterator@V?$_Tree_val@U?$_Tree_simple_types@U?$pair@$$CBV?$basic_string@DU?$char_traits@D@std@@V?$allocator@D@2@@std@@UGLTexture@BookEngine@@@std@@@std@@@std@@@0@AAV10@@Z
	??$forward@AAV?$basic_string@DU?$char_traits@D@std@@V?$allocator@D@2@@std@@@std@@YAAAV?$basic_string@DU?$char_traits@D@std@@V?$allocator@D@2@@0@AAV10@@Z
	??$forward@AAVParticle2D@BookEngine@@@std@@YAAAVParticle2D@BookEngine@@AAV12@@Z
	??$forward@ABH@std@@YAABHABH@Z
	??$forward@ABI@std@@YAABIABI@Z
	??$forward@ABK@std@@YAABKABK@Z
	??$forward@ABQAD@std@@YAABQADABQAD@Z
	??$forward@ABQAVIScreen@BookEngine@@@std@@YAABQAVIScreen@BookEngine@@ABQAV12@@Z
	??$forward@ABQAVParticleBatch2D@BookEngine@@@std@@YAABQAVParticleBatch2D@BookEngine@@ABQAV12@@Z
	??$forward@ABU?$less@V?$basic_string@DU?$char_traits@D@std@@V?$allocator@D@2@@std@@@std@@@std@@YAABU?$less@V?$basic_string@DU?$char_traits@D@std@@V?$allocator@D@2@@std@@@0@ABU10@@Z
	??$forward@ABU?$tvec2@M$0A@@glm@@@std@@YAABU?$tvec2@M$0A@@glm@@ABU12@@Z
	??$forward@ABU?$tvec3@M$0A@@glm@@@std@@YAABU?$tvec3@M$0A@@glm@@ABU12@@Z
	??$forward@ABU?$tvec4@M$0A@@glm@@@std@@YAABU?$tvec4@M$0A@@glm@@ABU12@@Z
	??$forward@ABUColorRGBA8@BookEngine@@@std@@YAABUColorRGBA8@BookEngine@@ABU12@@Z
	??$forward@ABUpiecewise_construct_t@std@@@std@@YAABUpiecewise_construct_t@0@ABU10@@Z
	??$forward@ABV?$_List_unchecked_iterator@V?$_List_val@U?$_List_simple_types@U?$pair@$$CBI_N@std@@@std@@@std@@@std@@@std@@YAABV?$_List_unchecked_iterator@V?$_List_val@U?$_List_simple_types@U?$pair@$$CBI_N@std@@@std@@@std@@@0@ABV10@@Z
	??$forward@ABV?$allocator@D@std@@@std@@YAABV?$allocator@D@0@ABV10@@Z
	??$forward@ABV?$allocator@E@std@@@std@@YAABV?$allocator@E@0@ABV10@@Z
	??$forward@ABV?$allocator@K@std@@@std@@YAABV?$allocator@K@0@ABV10@@Z
	??$forward@ABV?$allocator@U?$pair@$$CBI_N@std@@@std@@@std@@YAABV?$allocator@U?$pair@$$CBI_N@std@@@0@ABV10@@Z
	??$forward@ABV?$allocator@V?$_List_unchecked_iterator@V?$_List_val@U?$_List_simple_types@U?$pair@$$CBI_N@std@@@std@@@std@@@std@@@std@@@std@@YAABV?$allocator@V?$_List_unchecked_iterator@V?$_List_val@U?$_List_simple_types@U?$pair@$$CBI_N@std@@@std@@@std@@@std@@@0@ABV10@@Z
	??$forward@ABV?$basic_string@DU?$char_traits@D@std@@V?$allocator@D@2@@std@@@std@@YAABV?$basic_string@DU?$char_traits@D@std@@V?$allocator@D@2@@0@ABV10@@Z
	??$forward@H@std@@YA$$QAHAAH@Z
	??$forward@M@std@@YA$$QAMAAM@Z
	??$forward@PAVGlyph@BookEngine@@@std@@YA$$QAPAVGlyph@BookEngine@@AAPAV12@@Z
	??$forward@PAVIGame@BookEngine@@@std@@YA$$QAPAVIGame@BookEngine@@AAPAV12@@Z
	??$forward@U?$default_delete@VScreenList@BookEngine@@@std@@@std@@YA$$QAU?$default_delete@VScreenList@BookEngine@@@0@AAU10@@Z
	??$forward@U?$pair@V?$basic_string@DU?$char_traits@D@std@@V?$allocator@D@2@@std@@UGLTexture@BookEngine@@@std@@@std@@YA$$QAU?$pair@V?$basic_string@DU?$char_traits@D@std@@V?$allocator@D@2@@std@@UGLTexture@BookEngine@@@0@AAU10@@Z
	??$forward@U?$tvec2@M$0A@@glm@@@std@@YA$$QAU?$tvec2@M$0A@@glm@@AAU12@@Z
	??$forward@U?$tvec3@M$0A@@glm@@@std@@YA$$QAU?$tvec3@M$0A@@glm@@AAU12@@Z
	??$forward@U?$tvec4@M$0A@@glm@@@std@@YA$$QAU?$tvec4@M$0A@@glm@@AAU12@@Z
	??$forward@UGLTexture@BookEngine@@@std@@YA$$QAUGLTexture@BookEngine@@AAU12@@Z
	??$forward@UVertex2D@BookEngine@@@std@@YA$$QAUVertex2D@BookEngine@@AAU12@@Z
	??$forward@U_Container_proxy@std@@@std@@YA$$QAU_Container_proxy@0@AAU10@@Z
	??$forward@U_One_then_variadic_args_t@std@@@std@@YA$$QAU_One_then_variadic_args_t@0@AAU10@@Z
	??$forward@U_Zero_then_variadic_args_t@std@@@std@@YA$$QAU_Zero_then_variadic_args_t@0@AAU10@@Z
	??$forward@V?$_List_iterator@V?$_List_val@U?$_List_simple_types@U?$pair@$$CBI_N@std@@@std@@@std@@@std@@@std@@YA$$QAV?$_List_iterator@V?$_List_val@U?$_List_simple_types@U?$pair@$$CBI_N@std@@@std@@@std@@@0@AAV10@@Z
	??$forward@V?$_List_unchecked_iterator@V?$_List_val@U?$_List_simple_types@U?$pair@$$CBI_N@std@@@std@@@std@@@std@@@std@@YA$$QAV?$_List_unchecked_iterator@V?$_List_val@U?$_List_simple_types@U?$pair@$$CBI_N@std@@@std@@@std@@@0@AAV10@@Z
	??$forward@V?$_Tree_iterator@V?$_Tree_val@U?$_Tree_simple_types@U?$pair@$$CBV?$basic_string@DU?$char_traits@D@std@@V?$allocator@D@2@@std@@PAUMix_Chunk@@@std@@@std@@@std@@@std@@@std@@YA$$QAV?$_Tree_iterator@V?$_Tree_val@U?$_Tree_simple_types@U?$pair@$$CBV?$basic_string@DU?$char_traits@D@std@@V?$allocator@D@2@@std@@PAUMix_Chunk@@@std@@@std@@@std@@@0@AAV10@@Z
	??$forward@V?$_Tree_iterator@V?$_Tree_val@U?$_Tree_simple_types@U?$pair@$$CBV?$basic_string@DU?$char_traits@D@std@@V?$allocator@D@2@@std@@PAU_Mix_Music@@@std@@@std@@@std@@@std@@@std@@YA$$QAV?$_Tree_iterator@V?$_Tree_val@U?$_Tree_simple_types@U?$pair@$$CBV?$basic_string@DU?$char_traits@D@std@@V?$allocator@D@2@@std@@PAU_Mix_Music@@@std@@@std@@@std@@@0@AAV10@@Z
	??$forward@V?$_Tree_iterator@V?$_Tree_val@U?$_Tree_simple_types@U?$pair@$$CBV?$basic_string@DU?$char_traits@D@std@@V?$allocator@D@2@@std@@UGLTexture@BookEngine@@@std@@@std@@@std@@@std@@@std@@YA$$QAV?$_Tree_iterator@V?$_Tree_val@U?$_Tree_simple_types@U?$pair@$$CBV?$basic_string@DU?$char_traits@D@std@@V?$allocator@D@2@@std@@UGLTexture@BookEngine@@@std@@@std@@@std@@@0@AAV10@@Z
	??$forward@V?$allocator@D@std@@@std@@YA$$QAV?$allocator@D@0@AAV10@@Z
	??$forward@V?$allocator@E@std@@@std@@YA$$QAV?$allocator@E@0@AAV10@@Z
	??$forward@V?$basic_string@DU?$char_traits@D@std@@V?$allocator@D@2@@std@@@std@@YA$$QAV?$basic_string@DU?$char_traits@D@std@@V?$allocator@D@2@@0@AAV10@@Z
	??$forward@V?$tuple@$$V@std@@@std@@YA$$QAV?$tuple@$$V@0@AAV10@@Z
	??$forward@V?$tuple@ABI@std@@@std@@YA$$QAV?$tuple@ABI@0@AAV10@@Z
	??$forward@V?$tuple@ABV?$basic_string@DU?$char_traits@D@std@@V?$allocator@D@2@@std@@@std@@@std@@YA$$QAV?$tuple@ABV?$basic_string@DU?$char_traits@D@std@@V?$allocator@D@2@@std@@@0@AAV10@@Z
	??$forward@VBatchRenderr@BookEngine@@@std@@YA$$QAVBatchRenderr@BookEngine@@AAV12@@Z
	??$forward@VGlyph@BookEngine@@@std@@YA$$QAVGlyph@BookEngine@@AAV12@@Z
	??$forward@_N@std@@YA$$QA_NAA_N@Z
	??$forward_as_tuple@$$V@std@@YA?AV?$tuple@$$V@0@XZ
	??$forward_as_tuple@ABI@std@@YA?AV?$tuple@ABI@0@ABI@Z
	??$forward_as_tuple@ABV?$basic_string@DU?$char_traits@D@std@@V?$allocator@D@2@@std@@@std@@YA?AV?$tuple@ABV?$basic_string@DU?$char_traits@D@std@@V?$allocator@D@2@@std@@@0@ABV?$basic_string@DU?$char_traits@D@std@@V?$allocator@D@2@@0@@Z
	??$get@$0A@ABI@std@@YAABI$$QAV?$tuple@ABI@0@@Z
	??$get@$0A@ABV?$basic_string@DU?$char_traits@D@std@@V?$allocator@D@2@@std@@@std@@YAABV?$basic_string@DU?$char_traits@D@std@@V?$allocator@D@2@@0@$$QAV?$tuple@ABV?$basic_string@DU?$char_traits@D@std@@V?$allocator@D@2@@std@@@0@@Z
	??$getline@DU?$char_traits@D@std@@V?$allocator@D@2@@std@@YAAAV?$basic_istream@DU?$char_traits@D@std@@@0@$$QAV10@AAV?$basic_string@DU?$char_traits@D@std@@V?$allocator@D@2@@0@D@Z
	??$getline@DU?$char_traits@D@std@@V?$allocator@D@2@@std@@YAAAV?$basic_istream@DU?$char_traits@D@std@@@0@AAV10@AAV?$basic_string@DU?$char_traits@D@std@@V?$allocator@D@2@@0@@Z
	??$insert@PBEX@?$vector@EV?$allocator@E@std@@@std@@QAE?AV?$_Vector_iterator@V?$_Vector_val@U?$_Simple_types@E@std@@@std@@@1@V?$_Vector_const_iterator@V?$_Vector_val@U?$_Simple_types@E@std@@@std@@@1@PBE1@Z
	??$insert@U?$pair@V?$basic_string@DU?$char_traits@D@std@@V?$allocator@D@2@@std@@UGLTexture@BookEngine@@@std@@X@?$map@V?$basic_string@DU?$char_traits@D@std@@V?$allocator@D@2@@std@@UGLTexture@BookEngine@@U?$less@V?$basic_string@DU?$char_traits@D@std@@V?$allocator@D@2@@std@@@2@V?$allocator@U?$pair@$$CBV?$basic_string@DU?$char_traits@D@std@@V?$allocator@D@2@@std@@UGLTexture@BookEngine@@@std@@@2@@std@@QAE?AU?$pair@V?$_Tree_iterator@V?$_Tree_val@U?$_Tree_simple_types@U?$pair@$$CBV?$basic_string@DU?$char_traits@D@std@@V?$allocator@D@2@@std@@UGLTexture@BookEngine@@@std@@@std@@@std@@@std@@_N@1@$$QAU?$pair@V?$basic_string@DU?$char_traits@D@std@@V?$allocator@D@2@@std@@UGLTexture@BookEngine@@@1@@Z
	??$inversesqrt@M@glm@@YAMM@Z
	??$lookAt@M$0A@@glm@@YA?AU?$tmat4x4@M$0A@@0@ABU?$tvec3@M$0A@@0@00@Z
	??$lookAtRH@M$0A@@glm@@YA?AU?$tmat4x4@M$0A@@0@ABU?$tvec3@M$0A@@0@00@Z
	??$make_pair@AAV?$basic_string@DU?$char_traits@D@std@@V?$allocator@D@2@@std@@AAUGLTexture@BookEngine@@@std@@YA?AU?$pair@V?$basic_string@DU?$char_traits@D@std@@V?$allocator@D@2@@std@@UGLTexture@BookEngine@@@0@AAV?$basic_string@DU?$char_traits@D@std@@V?$allocator@D@2@@0@AAUGLTexture@BookEngine@@@Z
	??$make_unique@VScreenList@BookEngine@@PAVIGame@2@$0A@@std@@YA?AV?$unique_ptr@VScreenList@BookEngine@@U?$default_delete@VScreenList@BookEngine@@@std@@@0@$$QAPAVIGame@BookEngine@@@Z
	??$move@AAD@std@@YA$$QADAAD@Z
	??$move@AAPAVGlyph@BookEngine@@@std@@YA$$QAPAVGlyph@BookEngine@@AAPAV12@@Z
	??$move@AAU?$tvec2@M$0A@@glm@@@std@@YA$$QAU?$tvec2@M$0A@@glm@@AAU12@@Z
	??$move@AAU?$tvec3@M$0A@@glm@@@std@@YA$$QAU?$tvec3@M$0A@@glm@@AAU12@@Z
	??$move@AAU?$tvec4@M$0A@@glm@@@std@@YA$$QAU?$tvec4@M$0A@@glm@@AAU12@@Z
	??$move@AAUVertex2D@BookEngine@@@std@@YA$$QAUVertex2D@BookEngine@@AAU12@@Z
	??$move@AAV?$_Func_class@XAAVParticle2D@BookEngine@@M@std@@@std@@YA$$QAV?$_Func_class@XAAVParticle2D@BookEngine@@M@0@AAV10@@Z
	??$move@AAV?$_List_unchecked_iterator@V?$_List_val@U?$_List_simple_types@U?$pair@$$CBI_N@std@@@std@@@std@@@std@@@std@@YA$$QAV?$_List_unchecked_iterator@V?$_List_val@U?$_List_simple_types@U?$pair@$$CBI_N@std@@@std@@@std@@@0@AAV10@@Z
	??$move@AAV?$allocator@D@std@@@std@@YA$$QAV?$allocator@D@0@AAV10@@Z
	??$move@AAV?$basic_istream@DU?$char_traits@D@std@@@std@@@std@@YA$$QAV?$basic_istream@DU?$char_traits@D@std@@@0@AAV10@@Z
	??$move@AAV?$basic_string@DU?$char_traits@D@std@@V?$allocator@D@2@@std@@@std@@YA$$QAV?$basic_string@DU?$char_traits@D@std@@V?$allocator@D@2@@0@AAV10@@Z
	??$move@AAV?$tuple@ABI@std@@@std@@YA$$QAV?$tuple@ABI@0@AAV10@@Z
	??$move@AAV?$tuple@ABV?$basic_string@DU?$char_traits@D@std@@V?$allocator@D@2@@std@@@std@@@std@@YA$$QAV?$tuple@ABV?$basic_string@DU?$char_traits@D@std@@V?$allocator@D@2@@std@@@0@AAV10@@Z
	??$move@AAVBatchRenderr@BookEngine@@@std@@YA$$QAVBatchRenderr@BookEngine@@AAV12@@Z
	??$move@AAVGlyph@BookEngine@@@std@@YA$$QAVGlyph@BookEngine@@AAV12@@Z
	??$next@PAPAVGlyph@BookEngine@@@std@@YAPAPAVGlyph@BookEngine@@PAPAV12@H@Z
	??$normalize@M$0A@Utvec3@glm@@@glm@@YA?AU?$tvec3@M$0A@@0@ABU10@@Z
	??$ortho@M@glm@@YA?AU?$tmat4x4@M$0A@@0@MMMM@Z
	??$perspective@M@glm@@YA?AU?$tmat4x4@M$0A@@0@MMMM@Z
	??$perspectiveRH@M@glm@@YA?AU?$tmat4x4@M$0A@@0@MMMM@Z
	??$radians@M@glm@@YAMM@Z
	??$scale@M$0A@@glm@@YA?AU?$tmat4x4@M$0A@@0@ABU10@ABU?$tvec3@M$0A@@0@@Z
	??$stable_sort@V?$_Vector_iterator@V?$_Vector_val@U?$_Simple_types@PAVGlyph@BookEngine@@@std@@@std@@@std@@P6A_NPAVGlyph@BookEngine@@0@Z@std@@YAXV?$_Vector_iterator@V?$_Vector_val@U?$_Simple_types@PAVGlyph@BookEngine@@@std@@@std@@@0@0P6A_NPAVGlyph@BookEngine@@1@Z@Z
	??$swap@DX@std@@YAXAAD0@Z
	??$translate@M$0A@@glm@@YA?AU?$tmat4x4@M$0A@@0@ABU10@ABU?$tvec3@M$0A@@0@@Z
	??$try_emplace@$$V@?$map@V?$basic_string@DU?$char_traits@D@std@@V?$allocator@D@2@@std@@PAUMix_Chunk@@U?$less@V?$basic_string@DU?$char_traits@D@std@@V?$allocator@D@2@@std@@@2@V?$allocator@U?$pair@$$CBV?$basic_string@DU?$char_traits@D@std@@V?$allocator@D@2@@std@@PAUMix_Chunk@@@std@@@2@@std@@QAE?AU?$pair@V?$_Tree_iterator@V?$_Tree_val@U?$_Tree_simple_types@U?$pair@$$CBV?$basic_string@DU?$char_traits@D@std@@V?$allocator@D@2@@std@@PAUMix_Chunk@@@std@@@std@@@std@@@std@@_N@1@ABV?$basic_string@DU?$char_traits@D@std@@V?$allocator@D@2@@1@@Z
	??$try_emplace@$$V@?$map@V?$basic_string@DU?$char_traits@D@std@@V?$allocator@D@2@@std@@PAU_Mix_Music@@U?$less@V?$basic_string@DU?$char_traits@D@std@@V?$allocator@D@2@@std@@@2@V?$allocator@U?$pair@$$CBV?$basic_string@DU?$char_traits@D@std@@V?$allocator@D@2@@std@@PAU_Mix_Music@@@std@@@2@@std@@QAE?AU?$pair@V?$_Tree_iterator@V?$_Tree_val@U?$_Tree_simple_types@U?$pair@$$CBV?$basic_string@DU?$char_traits@D@std@@V?$allocator@D@2@@std@@PAU_Mix_Music@@@std@@@std@@@std@@@std@@_N@1@ABV?$basic_string@DU?$char_traits@D@std@@V?$allocator@D@2@@1@@Z
	??$try_emplace@$$V@?$unordered_map@I_NU?$hash@I@std@@U?$equal_to@I@2@V?$allocator@U?$pair@$$CBI_N@std@@@2@@std@@QAE?AU?$pair@V?$_List_iterator@V?$_List_val@U?$_List_simple_types@U?$pair@$$CBI_N@std@@@std@@@std@@@std@@_N@1@ABI@Z
	??$use_facet@V?$codecvt@DDU_Mbstatet@@@std@@@std@@YAABV?$codecvt@DDU_Mbstatet@@@0@ABVlocale@0@@Z
	??0?$_Func_class@XAAVParticle2D@BookEngine@@M@std@@QAE@XZ
	??0?$_Hash@V?$_Umap_traits@I_NV?$_Uhash_compare@IU?$hash@I@std@@U?$equal_to@I@2@@std@@V?$allocator@U?$pair@$$CBI_N@std@@@2@$0A@@std@@@std@@QAE@ABV?$_Uhash_compare@IU?$hash@I@std@@U?$equal_to@I@2@@1@ABV?$allocator@U?$pair@$$CBI_N@std@@@1@@Z
	??0?$_List_const_iterator@V?$_List_val@U?$_List_simple_types@U?$pair@$$CBI_N@std@@@std@@@std@@@std@@QAE@$$QAV01@@Z
	??0?$_List_const_iterator@V?$_List_val@U?$_List_simple_types@U?$pair@$$CBI_N@std@@@std@@@std@@@std@@QAE@ABV01@@Z
	??0?$_List_const_iterator@V?$_List_val@U?$_List_simple_types@U?$pair@$$CBI_N@std@@@std@@@std@@@std@@QAE@PAU?$_List_node@U?$pair@$$CBI_N@std@@PAX@1@PBV?$_List_val@U?$_List_simple_types@U?$pair@$$CBI_N@std@@@std@@@1@@Z
	??0?$_List_iterator@V?$_List_val@U?$_List_simple_types@U?$pair@$$CBI_N@std@@@std@@@std@@@std@@QAE@$$QAV01@@Z
	??0?$_List_iterator@V?$_List_val@U?$_List_simple_types@U?$pair@$$CBI_N@std@@@std@@@std@@@std@@QAE@ABV01@@Z
	??0?$_List_iterator@V?$_List_val@U?$_List_simple_types@U?$pair@$$CBI_N@std@@@std@@@std@@@std@@QAE@PAU?$_List_node@U?$pair@$$CBI_N@std@@PAX@1@PBV?$_List_val@U?$_List_simple_types@U?$pair@$$CBI_N@std@@@std@@@1@@Z
	??0?$_List_unchecked_const_iterator@V?$_List_val@U?$_List_simple_types@U?$pair@$$CBI_N@std@@@std@@@std@@U_Iterator_base0@2@@std@@QAE@PAU?$_List_node@U?$pair@$$CBI_N@std@@PAX@1@PBV?$_List_val@U?$_List_simple_types@U?$pair@$$CBI_N@std@@@std@@@1@@Z
	??0?$_List_unchecked_const_iterator@V?$_List_val@U?$_List_simple_types@U?$pair@$$CBI_N@std@@@std@@@std@@U_Iterator_base0@2@@std@@QAE@XZ
	??0?$_List_unchecked_const_iterator@V?$_List_val@U?$_List_simple_types@U?$pair@$$CBI_N@std@@@std@@@std@@U_Iterator_base12@2@@std@@QAE@$$QAV01@@Z
	??0?$_List_unchecked_const_iterator@V?$_List_val@U?$_List_simple_types@U?$pair@$$CBI_N@std@@@std@@@std@@U_Iterator_base12@2@@std@@QAE@ABV01@@Z
	??0?$_List_unchecked_const_iterator@V?$_List_val@U?$_List_simple_types@U?$pair@$$CBI_N@std@@@std@@@std@@U_Iterator_base12@2@@std@@QAE@PAU?$_List_node@U?$pair@$$CBI_N@std@@PAX@1@PBV?$_List_val@U?$_List_simple_types@U?$pair@$$CBI_N@std@@@std@@@1@@Z
	??0?$_List_unchecked_iterator@V?$_List_val@U?$_List_simple_types@U?$pair@$$CBI_N@std@@@std@@@std@@@std@@QAE@PAU?$_List_node@U?$pair@$$CBI_N@std@@PAX@1@PBV?$_List_val@U?$_List_simple_types@U?$pair@$$CBI_N@std@@@std@@@1@@Z
	??0?$_List_unchecked_iterator@V?$_List_val@U?$_List_simple_types@U?$pair@$$CBI_N@std@@@std@@@std@@@std@@QAE@XZ
	??0?$_List_val@U?$_List_simple_types@U?$pair@$$CBI_N@std@@@std@@@std@@QAE@XZ
	??0?$_String_alloc@U?$_String_base_types@DV?$allocator@D@std@@@std@@@std@@QAE@XZ
	??0?$_String_const_iterator@V?$_String_val@U?$_Simple_types@D@std@@@std@@@std@@QAE@PBDPBU_Container_base12@1@@Z
	??0?$_String_iterator@V?$_String_val@U?$_Simple_types@D@std@@@std@@@std@@QAE@PADPBU_Container_base12@1@@Z
	??0?$_String_val@U?$_Simple_types@D@std@@@std@@QAE@XZ
	??0?$_Temporary_buffer@PAVGlyph@BookEngine@@@std@@QAE@H@Z
	??0?$_Temporary_range@PAVGlyph@BookEngine@@@std@@QAE@AAU?$_Temporary_buffer@PAVGlyph@BookEngine@@@1@@Z
	??0?$_Tree@V?$_Tmap_traits@V?$basic_string@DU?$char_traits@D@std@@V?$allocator@D@2@@std@@PAUMix_Chunk@@U?$less@V?$basic_string@DU?$char_traits@D@std@@V?$allocator@D@2@@std@@@2@V?$allocator@U?$pair@$$CBV?$basic_string@DU?$char_traits@D@std@@V?$allocator@D@2@@std@@PAUMix_Chunk@@@std@@@2@$0A@@std@@@std@@QAE@ABU?$less@V?$basic_string@DU?$char_traits@D@std@@V?$allocator@D@2@@std@@@1@@Z
	??0?$_Tree@V?$_Tmap_traits@V?$basic_string@DU?$char_traits@D@std@@V?$allocator@D@2@@std@@PAU_Mix_Music@@U?$less@V?$basic_string@DU?$char_traits@D@std@@V?$allocator@D@2@@std@@@2@V?$allocator@U?$pair@$$CBV?$basic_string@DU?$char_traits@D@std@@V?$allocator@D@2@@std@@PAU_Mix_Music@@@std@@@2@$0A@@std@@@std@@QAE@ABU?$less@V?$basic_string@DU?$char_traits@D@std@@V?$allocator@D@2@@std@@@1@@Z
	??0?$_Tree@V?$_Tmap_traits@V?$basic_string@DU?$char_traits@D@std@@V?$allocator@D@2@@std@@UGLTexture@BookEngine@@U?$less@V?$basic_string@DU?$char_traits@D@std@@V?$allocator@D@2@@std@@@2@V?$allocator@U?$pair@$$CBV?$basic_string@DU?$char_traits@D@std@@V?$allocator@D@2@@std@@UGLTexture@BookEngine@@@std@@@2@$0A@@std@@@std@@QAE@ABU?$less@V?$basic_string@DU?$char_traits@D@std@@V?$allocator@D@2@@std@@@1@@Z
	??0?$_Tree_comp_alloc@V?$_Tmap_traits@V?$basic_string@DU?$char_traits@D@std@@V?$allocator@D@2@@std@@PAUMix_Chunk@@U?$less@V?$basic_string@DU?$char_traits@D@std@@V?$allocator@D@2@@std@@@2@V?$allocator@U?$pair@$$CBV?$basic_string@DU?$char_traits@D@std@@V?$allocator@D@2@@std@@PAUMix_Chunk@@@std@@@2@$0A@@std@@@std@@QAE@ABU?$less@V?$basic_string@DU?$char_traits@D@std@@V?$allocator@D@2@@std@@@1@@Z
	??0?$_Tree_comp_alloc@V?$_Tmap_traits@V?$basic_string@DU?$char_traits@D@std@@V?$allocator@D@2@@std@@PAU_Mix_Music@@U?$less@V?$basic_string@DU?$char_traits@D@std@@V?$allocator@D@2@@std@@@2@V?$allocator@U?$pair@$$CBV?$basic_string@DU?$char_traits@D@std@@V?$allocator@D@2@@std@@PAU_Mix_Music@@@std@@@2@$0A@@std@@@std@@QAE@ABU?$less@V?$basic_string@DU?$char_traits@D@std@@V?$allocator@D@2@@std@@@1@@Z
	??0?$_Tree_comp_alloc@V?$_Tmap_traits@V?$basic_string@DU?$char_traits@D@std@@V?$allocator@D@2@@std@@UGLTexture@BookEngine@@U?$less@V?$basic_string@DU?$char_traits@D@std@@V?$allocator@D@2@@std@@@2@V?$allocator@U?$pair@$$CBV?$basic_string@DU?$char_traits@D@std@@V?$allocator@D@2@@std@@UGLTexture@BookEngine@@@std@@@2@$0A@@std@@@std@@QAE@ABU?$less@V?$basic_string@DU?$char_traits@D@std@@V?$allocator@D@2@@std@@@1@@Z
	??0?$_Tree_const_iterator@V?$_Tree_val@U?$_Tree_simple_types@U?$pair@$$CBV?$basic_string@DU?$char_traits@D@std@@V?$allocator@D@2@@std@@PAUMix_Chunk@@@std@@@std@@@std@@@std@@QAE@$$QAV01@@Z
	??0?$_Tree_const_iterator@V?$_Tree_val@U?$_Tree_simple_types@U?$pair@$$CBV?$basic_string@DU?$char_traits@D@std@@V?$allocator@D@2@@std@@PAUMix_Chunk@@@std@@@std@@@std@@@std@@QAE@ABV01@@Z
	??0?$_Tree_const_iterator@V?$_Tree_val@U?$_Tree_simple_types@U?$pair@$$CBV?$basic_string@DU?$char_traits@D@std@@V?$allocator@D@2@@std@@PAUMix_Chunk@@@std@@@std@@@std@@@std@@QAE@PAU?$_Tree_node@U?$pair@$$CBV?$basic_string@DU?$char_traits@D@std@@V?$allocator@D@2@@std@@PAUMix_Chunk@@@std@@PAX@1@PBV?$_Tree_val@U?$_Tree_simple_types@U?$pair@$$CBV?$basic_string@DU?$char_traits@D@std@@V?$allocator@D@2@@std@@PAUMix_Chunk@@@std@@@std@@@1@@Z
	??0?$_Tree_const_iterator@V?$_Tree_val@U?$_Tree_simple_types@U?$pair@$$CBV?$basic_string@DU?$char_traits@D@std@@V?$allocator@D@2@@std@@PAUMix_Chunk@@@std@@@std@@@std@@@std@@QAE@XZ
	??0?$_Tree_const_iterator@V?$_Tree_val@U?$_Tree_simple_types@U?$pair@$$CBV?$basic_string@DU?$char_traits@D@std@@V?$allocator@D@2@@std@@PAU_Mix_Music@@@std@@@std@@@std@@@std@@QAE@$$QAV01@@Z
	??0?$_Tree_const_iterator@V?$_Tree_val@U?$_Tree_simple_types@U?$pair@$$CBV?$basic_string@DU?$char_traits@D@std@@V?$allocator@D@2@@std@@PAU_Mix_Music@@@std@@@std@@@std@@@std@@QAE@ABV01@@Z
	??0?$_Tree_const_iterator@V?$_Tree_val@U?$_Tree_simple_types@U?$pair@$$CBV?$basic_string@DU?$char_traits@D@std@@V?$allocator@D@2@@std@@PAU_Mix_Music@@@std@@@std@@@std@@@std@@QAE@PAU?$_Tree_node@U?$pair@$$CBV?$basic_string@DU?$char_traits@D@std@@V?$allocator@D@2@@std@@PAU_Mix_Music@@@std@@PAX@1@PBV?$_Tree_val@U?$_Tree_simple_types@U?$pair@$$CBV?$basic_string@DU?$char_traits@D@std@@V?$allocator@D@2@@std@@PAU_Mix_Music@@@std@@@std@@@1@@Z
	??0?$_Tree_const_iterator@V?$_Tree_val@U?$_Tree_simple_types@U?$pair@$$CBV?$basic_string@DU?$char_traits@D@std@@V?$allocator@D@2@@std@@PAU_Mix_Music@@@std@@@std@@@std@@@std@@QAE@XZ
	??0?$_Tree_const_iterator@V?$_Tree_val@U?$_Tree_simple_types@U?$pair@$$CBV?$basic_string@DU?$char_traits@D@std@@V?$allocator@D@2@@std@@UGLTexture@BookEngine@@@std@@@std@@@std@@@std@@QAE@$$QAV01@@Z
	??0?$_Tree_const_iterator@V?$_Tree_val@U?$_Tree_simple_types@U?$pair@$$CBV?$basic_string@DU?$char_traits@D@std@@V?$allocator@D@2@@std@@UGLTexture@BookEngine@@@std@@@std@@@std@@@std@@QAE@ABV01@@Z
	??0?$_Tree_const_iterator@V?$_Tree_val@U?$_Tree_simple_types@U?$pair@$$CBV?$basic_string@DU?$char_traits@D@std@@V?$allocator@D@2@@std@@UGLTexture@BookEngine@@@std@@@std@@@std@@@std@@QAE@PAU?$_Tree_node@U?$pair@$$CBV?$basic_string@DU?$char_traits@D@std@@V?$allocator@D@2@@std@@UGLTexture@BookEngine@@@std@@PAX@1@PBV?$_Tree_val@U?$_Tree_simple_types@U?$pair@$$CBV?$basic_string@DU?$char_traits@D@std@@V?$allocator@D@2@@std@@UGLTexture@BookEngine@@@std@@@std@@@1@@Z
	??0?$_Tree_iterator@V?$_Tree_val@U?$_Tree_simple_types@U?$pair@$$CBV?$basic_string@DU?$char_traits@D@std@@V?$allocator@D@2@@std@@PAUMix_Chunk@@@std@@@std@@@std@@@std@@QAE@$$QAV01@@Z
	??0?$_Tree_iterator@V?$_Tree_val@U?$_Tree_simple_types@U?$pair@$$CBV?$basic_string@DU?$char_traits@D@std@@V?$allocator@D@2@@std@@PAUMix_Chunk@@@std@@@std@@@std@@@std@@QAE@ABV01@@Z
	??0?$_Tree_iterator@V?$_Tree_val@U?$_Tree_simple_types@U?$pair@$$CBV?$basic_string@DU?$char_traits@D@std@@V?$allocator@D@2@@std@@PAUMix_Chunk@@@std@@@std@@@std@@@std@@QAE@PAU?$_Tree_node@U?$pair@$$CBV?$basic_string@DU?$char_traits@D@std@@V?$allocator@D@2@@std@@PAUMix_Chunk@@@std@@PAX@1@PBV?$_Tree_val@U?$_Tree_simple_types@U?$pair@$$CBV?$basic_string@DU?$char_traits@D@std@@V?$allocator@D@2@@std@@PAUMix_Chunk@@@std@@@std@@@1@@Z
	??0?$_Tree_iterator@V?$_Tree_val@U?$_Tree_simple_types@U?$pair@$$CBV?$basic_string@DU?$char_traits@D@std@@V?$allocator@D@2@@std@@PAU_Mix_Music@@@std@@@std@@@std@@@std@@QAE@$$QAV01@@Z
	??0?$_Tree_iterator@V?$_Tree_val@U?$_Tree_simple_types@U?$pair@$$CBV?$basic_string@DU?$char_traits@D@std@@V?$allocator@D@2@@std@@PAU_Mix_Music@@@std@@@std@@@std@@@std@@QAE@ABV01@@Z
	??0?$_Tree_iterator@V?$_Tree_val@U?$_Tree_simple_types@U?$pair@$$CBV?$basic_string@DU?$char_traits@D@std@@V?$allocator@D@2@@std@@PAU_Mix_Music@@@std@@@std@@@std@@@std@@QAE@PAU?$_Tree_node@U?$pair@$$CBV?$basic_string@DU?$char_traits@D@std@@V?$allocator@D@2@@std@@PAU_Mix_Music@@@std@@PAX@1@PBV?$_Tree_val@U?$_Tree_simple_types@U?$pair@$$CBV?$basic_string@DU?$char_traits@D@std@@V?$allocator@D@2@@std@@PAU_Mix_Music@@@std@@@std@@@1@@Z
	??0?$_Tree_iterator@V?$_Tree_val@U?$_Tree_simple_types@U?$pair@$$CBV?$basic_string@DU?$char_traits@D@std@@V?$allocator@D@2@@std@@UGLTexture@BookEngine@@@std@@@std@@@std@@@std@@QAE@$$QAV01@@Z
	??0?$_Tree_iterator@V?$_Tree_val@U?$_Tree_simple_types@U?$pair@$$CBV?$basic_string@DU?$char_traits@D@std@@V?$allocator@D@2@@std@@UGLTexture@BookEngine@@@std@@@std@@@std@@@std@@QAE@ABV01@@Z
	??0?$_Tree_iterator@V?$_Tree_val@U?$_Tree_simple_types@U?$pair@$$CBV?$basic_string@DU?$char_traits@D@std@@V?$allocator@D@2@@std@@UGLTexture@BookEngine@@@std@@@std@@@std@@@std@@QAE@PAU?$_Tree_node@U?$pair@$$CBV?$basic_string@DU?$char_traits@D@std@@V?$allocator@D@2@@std@@UGLTexture@BookEngine@@@std@@PAX@1@PBV?$_Tree_val@U?$_Tree_simple_types@U?$pair@$$CBV?$basic_string@DU?$char_traits@D@std@@V?$allocator@D@2@@std@@UGLTexture@BookEngine@@@std@@@std@@@1@@Z
	??0?$_Tree_unchecked_const_iterator@V?$_Tree_val@U?$_Tree_simple_types@U?$pair@$$CBV?$basic_string@DU?$char_traits@D@std@@V?$allocator@D@2@@std@@PAUMix_Chunk@@@std@@@std@@@std@@U_Iterator_base0@2@@std@@QAE@PAU?$_Tree_node@U?$pair@$$CBV?$basic_string@DU?$char_traits@D@std@@V?$allocator@D@2@@std@@PAUMix_Chunk@@@std@@PAX@1@PBV?$_Tree_val@U?$_Tree_simple_types@U?$pair@$$CBV?$basic_string@DU?$char_traits@D@std@@V?$allocator@D@2@@std@@PAUMix_Chunk@@@std@@@std@@@1@@Z
	??0?$_Tree_unchecked_const_iterator@V?$_Tree_val@U?$_Tree_simple_types@U?$pair@$$CBV?$basic_string@DU?$char_traits@D@std@@V?$allocator@D@2@@std@@PAUMix_Chunk@@@std@@@std@@@std@@U_Iterator_base12@2@@std@@QAE@$$QAV01@@Z
	??0?$_Tree_unchecked_const_iterator@V?$_Tree_val@U?$_Tree_simple_types@U?$pair@$$CBV?$basic_string@DU?$char_traits@D@std@@V?$allocator@D@2@@std@@PAUMix_Chunk@@@std@@@std@@@std@@U_Iterator_base12@2@@std@@QAE@ABV01@@Z
	??0?$_Tree_unchecked_const_iterator@V?$_Tree_val@U?$_Tree_simple_types@U?$pair@$$CBV?$basic_string@DU?$char_traits@D@std@@V?$allocator@D@2@@std@@PAUMix_Chunk@@@std@@@std@@@std@@U_Iterator_base12@2@@std@@QAE@PAU?$_Tree_node@U?$pair@$$CBV?$basic_string@DU?$char_traits@D@std@@V?$allocator@D@2@@std@@PAUMix_Chunk@@@std@@PAX@1@PBV?$_Tree_val@U?$_Tree_simple_types@U?$pair@$$CBV?$basic_string@DU?$char_traits@D@std@@V?$allocator@D@2@@std@@PAUMix_Chunk@@@std@@@std@@@1@@Z
	??0?$_Tree_unchecked_const_iterator@V?$_Tree_val@U?$_Tree_simple_types@U?$pair@$$CBV?$basic_string@DU?$char_traits@D@std@@V?$allocator@D@2@@std@@PAUMix_Chunk@@@std@@@std@@@std@@U_Iterator_base12@2@@std@@QAE@XZ
	??0?$_Tree_unchecked_const_iterator@V?$_Tree_val@U?$_Tree_simple_types@U?$pair@$$CBV?$basic_string@DU?$char_traits@D@std@@V?$allocator@D@2@@std@@PAU_Mix_Music@@@std@@@std@@@std@@U_Iterator_base0@2@@std@@QAE@PAU?$_Tree_node@U?$pair@$$CBV?$basic_string@DU?$char_traits@D@std@@V?$allocator@D@2@@std@@PAU_Mix_Music@@@std@@PAX@1@PBV?$_Tree_val@U?$_Tree_simple_types@U?$pair@$$CBV?$basic_string@DU?$char_traits@D@std@@V?$allocator@D@2@@std@@PAU_Mix_Music@@@std@@@std@@@1@@Z
	??0?$_Tree_unchecked_const_iterator@V?$_Tree_val@U?$_Tree_simple_types@U?$pair@$$CBV?$basic_string@DU?$char_traits@D@std@@V?$allocator@D@2@@std@@PAU_Mix_Music@@@std@@@std@@@std@@U_Iterator_base12@2@@std@@QAE@$$QAV01@@Z
	??0?$_Tree_unchecked_const_iterator@V?$_Tree_val@U?$_Tree_simple_types@U?$pair@$$CBV?$basic_string@DU?$char_traits@D@std@@V?$allocator@D@2@@std@@PAU_Mix_Music@@@std@@@std@@@std@@U_Iterator_base12@2@@std@@QAE@ABV01@@Z
	??0?$_Tree_unchecked_const_iterator@V?$_Tree_val@U?$_Tree_simple_types@U?$pair@$$CBV?$basic_string@DU?$char_traits@D@std@@V?$allocator@D@2@@std@@PAU_Mix_Music@@@std@@@std@@@std@@U_Iterator_base12@2@@std@@QAE@PAU?$_Tree_node@U?$pair@$$CBV?$basic_string@DU?$char_traits@D@std@@V?$allocator@D@2@@std@@PAU_Mix_Music@@@std@@PAX@1@PBV?$_Tree_val@U?$_Tree_simple_types@U?$pair@$$CBV?$basic_string@DU?$char_traits@D@std@@V?$allocator@D@2@@std@@PAU_Mix_Music@@@std@@@std@@@1@@Z
	??0?$_Tree_unchecked_const_iterator@V?$_Tree_val@U?$_Tree_simple_types@U?$pair@$$CBV?$basic_string@DU?$char_traits@D@std@@V?$allocator@D@2@@std@@PAU_Mix_Music@@@std@@@std@@@std@@U_Iterator_base12@2@@std@@QAE@XZ
	??0?$_Tree_unchecked_const_iterator@V?$_Tree_val@U?$_Tree_simple_types@U?$pair@$$CBV?$basic_string@DU?$char_traits@D@std@@V?$allocator@D@2@@std@@UGLTexture@BookEngine@@@std@@@std@@@std@@U_Iterator_base12@2@@std@@QAE@$$QAV01@@Z
	??0?$_Tree_unchecked_const_iterator@V?$_Tree_val@U?$_Tree_simple_types@U?$pair@$$CBV?$basic_string@DU?$char_traits@D@std@@V?$allocator@D@2@@std@@UGLTexture@BookEngine@@@std@@@std@@@std@@U_Iterator_base12@2@@std@@QAE@ABV01@@Z
	??0?$_Tree_unchecked_const_iterator@V?$_Tree_val@U?$_Tree_simple_types@U?$pair@$$CBV?$basic_string@DU?$char_traits@D@std@@V?$allocator@D@2@@std@@UGLTexture@BookEngine@@@std@@@std@@@std@@U_Iterator_base12@2@@std@@QAE@PAU?$_Tree_node@U?$pair@$$CBV?$basic_string@DU?$char_traits@D@std@@V?$allocator@D@2@@std@@UGLTexture@BookEngine@@@std@@PAX@1@PBV?$_Tree_val@U?$_Tree_simple_types@U?$pair@$$CBV?$basic_string@DU?$char_traits@D@std@@V?$allocator@D@2@@std@@UGLTexture@BookEngine@@@std@@@std@@@1@@Z
	??0?$_Tree_unchecked_iterator@V?$_Tree_val@U?$_Tree_simple_types@U?$pair@$$CBV?$basic_string@DU?$char_traits@D@std@@V?$allocator@D@2@@std@@PAUMix_Chunk@@@std@@@std@@@std@@@std@@QAE@PAU?$_Tree_node@U?$pair@$$CBV?$basic_string@DU?$char_traits@D@std@@V?$allocator@D@2@@std@@PAUMix_Chunk@@@std@@PAX@1@PBV?$_Tree_val@U?$_Tree_simple_types@U?$pair@$$CBV?$basic_string@DU?$char_traits@D@std@@V?$allocator@D@2@@std@@PAUMix_Chunk@@@std@@@std@@@1@@Z
	??0?$_Tree_unchecked_iterator@V?$_Tree_val@U?$_Tree_simple_types@U?$pair@$$CBV?$basic_string@DU?$char_traits@D@std@@V?$allocator@D@2@@std@@PAU_Mix_Music@@@std@@@std@@@std@@@std@@QAE@PAU?$_Tree_node@U?$pair@$$CBV?$basic_string@DU?$char_traits@D@std@@V?$allocator@D@2@@std@@PAU_Mix_Music@@@std@@PAX@1@PBV?$_Tree_val@U?$_Tree_simple_types@U?$pair@$$CBV?$basic_string@DU?$char_traits@D@std@@V?$allocator@D@2@@std@@PAU_Mix_Music@@@std@@@std@@@1@@Z
	??0?$_Tree_val@U?$_Tree_simple_types@U?$pair@$$CBV?$basic_string@DU?$char_traits@D@std@@V?$allocator@D@2@@std@@PAUMix_Chunk@@@std@@@std@@@std@@QAE@XZ
	??0?$_Tree_val@U?$_Tree_simple_types@U?$pair@$$CBV?$basic_string@DU?$char_traits@D@std@@V?$allocator@D@2@@std@@PAU_Mix_Music@@@std@@@std@@@std@@QAE@XZ
	??0?$_Tree_val@U?$_Tree_simple_types@U?$pair@$$CBV?$basic_string@DU?$char_traits@D@std@@V?$allocator@D@2@@std@@UGLTexture@BookEngine@@@std@@@std@@@std@@QAE@XZ
	??0?$_Uhash_compare@IU?$hash@I@std@@U?$equal_to@I@2@@std@@QAE@U?$hash@I@1@U?$equal_to@I@1@@Z
	??0?$_Umap_traits@I_NV?$_Uhash_compare@IU?$hash@I@std@@U?$equal_to@I@2@@std@@V?$allocator@U?$pair@$$CBI_N@std@@@2@$0A@@std@@QAE@ABV?$_Uhash_compare@IU?$hash@I@std@@U?$equal_to@I@2@@1@@Z
	??0?$_Vector_alloc@U?$_Vec_base_types@EV?$allocator@E@std@@@std@@@std@@QAE@XZ
	??0?$_Vector_alloc@U?$_Vec_base_types@HV?$allocator@H@std@@@std@@@std@@QAE@XZ
	??0?$_Vector_alloc@U?$_Vec_base_types@IV?$allocator@I@std@@@std@@@std@@QAE@XZ
	??0?$_Vector_alloc@U?$_Vec_base_types@KV?$allocator@K@std@@@std@@@std@@QAE@XZ
	??0?$_Vector_alloc@U?$_Vec_base_types@PAVGlyph@BookEngine@@V?$allocator@PAVGlyph@BookEngine@@@std@@@std@@@std@@QAE@XZ
	??0?$_Vector_alloc@U?$_Vec_base_types@PAVIScreen@BookEngine@@V?$allocator@PAVIScreen@BookEngine@@@std@@@std@@@std@@QAE@XZ
	??0?$_Vector_alloc@U?$_Vec_base_types@PAVParticleBatch2D@BookEngine@@V?$allocator@PAVParticleBatch2D@BookEngine@@@std@@@std@@@std@@QAE@XZ
	??0?$_Vector_alloc@U?$_Vec_base_types@U?$tvec2@M$0A@@glm@@V?$allocator@U?$tvec2@M$0A@@glm@@@std@@@std@@@std@@QAE@XZ
	??0?$_Vector_alloc@U?$_Vec_base_types@U?$tvec3@M$0A@@glm@@V?$allocator@U?$tvec3@M$0A@@glm@@@std@@@std@@@std@@QAE@XZ
	??0?$_Vector_alloc@U?$_Vec_base_types@U?$tvec4@M$0A@@glm@@V?$allocator@U?$tvec4@M$0A@@glm@@@std@@@std@@@std@@QAE@XZ
	??0?$_Vector_alloc@U?$_Vec_base_types@UVertex2D@BookEngine@@V?$allocator@UVertex2D@BookEngine@@@std@@@std@@@std@@QAE@XZ
	??0?$_Vector_alloc@U?$_Vec_base_types@VBatchRenderr@BookEngine@@V?$allocator@VBatchRenderr@BookEngine@@@std@@@std@@@std@@QAE@XZ
	??0?$_Vector_alloc@U?$_Vec_base_types@VGlyph@BookEngine@@V?$allocator@VGlyph@BookEngine@@@std@@@std@@@std@@QAE@XZ
	??0?$_Vector_const_iterator@V?$_Vector_val@U?$_Simple_types@E@std@@@std@@@std@@QAE@$$QAV01@@Z
	??0?$_Vector_const_iterator@V?$_Vector_val@U?$_Simple_types@E@std@@@std@@@std@@QAE@ABV01@@Z
	??0?$_Vector_const_iterator@V?$_Vector_val@U?$_Simple_types@E@std@@@std@@@std@@QAE@PAEPBU_Container_base12@1@@Z
	??0?$_Vector_const_iterator@V?$_Vector_val@U?$_Simple_types@PAVGlyph@BookEngine@@@std@@@std@@@std@@QAE@ABV01@@Z
	??0?$_Vector_const_iterator@V?$_Vector_val@U?$_Simple_types@PAVGlyph@BookEngine@@@std@@@std@@@std@@QAE@PAPAVGlyph@BookEngine@@PBU_Container_base12@1@@Z
	??0?$_Vector_iterator@V?$_Vector_val@U?$_Simple_types@E@std@@@std@@@std@@QAE@ABV01@@Z
	??0?$_Vector_iterator@V?$_Vector_val@U?$_Simple_types@E@std@@@std@@@std@@QAE@PAEPBU_Container_base12@1@@Z
	??0?$_Vector_iterator@V?$_Vector_val@U?$_Simple_types@PAVGlyph@BookEngine@@@std@@@std@@@std@@QAE@ABV01@@Z
	??0?$_Vector_iterator@V?$_Vector_val@U?$_Simple_types@PAVGlyph@BookEngine@@@std@@@std@@@std@@QAE@PAPAVGlyph@BookEngine@@PBU_Container_base12@1@@Z
	??0?$_Vector_val@U?$_Simple_types@D@std@@@std@@QAE@XZ
	??0?$_Vector_val@U?$_Simple_types@E@std@@@std@@QAE@XZ
	??0?$_Vector_val@U?$_Simple_types@H@std@@@std@@QAE@XZ
	??0?$_Vector_val@U?$_Simple_types@I@std@@@std@@QAE@XZ
	??0?$_Vector_val@U?$_Simple_types@K@std@@@std@@QAE@XZ
	??0?$_Vector_val@U?$_Simple_types@PAVGlyph@BookEngine@@@std@@@std@@QAE@XZ
	??0?$_Vector_val@U?$_Simple_types@PAVIScreen@BookEngine@@@std@@@std@@QAE@XZ
	??0?$_Vector_val@U?$_Simple_types@PAVParticleBatch2D@BookEngine@@@std@@@std@@QAE@XZ
	??0?$_Vector_val@U?$_Simple_types@U?$tvec2@M$0A@@glm@@@std@@@std@@QAE@XZ
	??0?$_Vector_val@U?$_Simple_types@U?$tvec3@M$0A@@glm@@@std@@@std@@QAE@XZ
	??0?$_Vector_val@U?$_Simple_types@U?$tvec4@M$0A@@glm@@@std@@@std@@QAE@XZ
	??0?$_Vector_val@U?$_Simple_types@UVertex2D@BookEngine@@@std@@@std@@QAE@XZ
	??0?$_Vector_val@U?$_Simple_types@V?$_List_unchecked_iterator@V?$_List_val@U?$_List_simple_types@U?$pair@$$CBI_N@std@@@std@@@std@@@std@@@std@@@std@@QAE@XZ
	??0?$_Vector_val@U?$_Simple_types@VBatchRenderr@BookEngine@@@std@@@std@@QAE@XZ
	??0?$_Vector_val@U?$_Simple_types@VGlyph@BookEngine@@@std@@@std@@QAE@XZ
	??0?$allocator@D@std@@QAE@XZ
	??0?$allocator@E@std@@QAE@XZ
	??0?$allocator@H@std@@QAE@XZ
	??0?$allocator@I@std@@QAE@XZ
	??0?$allocator@K@std@@QAE@XZ
	??0?$allocator@PAVGlyph@BookEngine@@@std@@QAE@XZ
	??0?$allocator@PAVIScreen@BookEngine@@@std@@QAE@XZ
	??0?$allocator@PAVParticleBatch2D@BookEngine@@@std@@QAE@XZ
	??0?$allocator@U?$_Tree_node@U?$pair@$$CBV?$basic_string@DU?$char_traits@D@std@@V?$allocator@D@2@@std@@PAUMix_Chunk@@@std@@PAX@std@@@std@@QAE@XZ
	??0?$allocator@U?$_Tree_node@U?$pair@$$CBV?$basic_string@DU?$char_traits@D@std@@V?$allocator@D@2@@std@@PAU_Mix_Music@@@std@@PAX@std@@@std@@QAE@XZ
	??0?$allocator@U?$_Tree_node@U?$pair@$$CBV?$basic_string@DU?$char_traits@D@std@@V?$allocator@D@2@@std@@UGLTexture@BookEngine@@@std@@PAX@std@@@std@@QAE@XZ
	??0?$allocator@U?$pair@$$CBI_N@std@@@std@@QAE@XZ
	??0?$allocator@U?$tvec2@M$0A@@glm@@@std@@QAE@XZ
	??0?$allocator@U?$tvec3@M$0A@@glm@@@std@@QAE@XZ
	??0?$allocator@U?$tvec4@M$0A@@glm@@@std@@QAE@XZ
	??0?$allocator@UVertex2D@BookEngine@@@std@@QAE@XZ
	??0?$allocator@VBatchRenderr@BookEngine@@@std@@QAE@XZ
	??0?$allocator@VGlyph@BookEngine@@@std@@QAE@XZ
	??0?$back_insert_iterator@U?$_Temporary_range@PAVGlyph@BookEngine@@@std@@@std@@QAE@AAU?$_Temporary_range@PAVGlyph@BookEngine@@@1@@Z
	??0?$basic_filebuf@DU?$char_traits@D@std@@@std@@QAE@PAU_iobuf@@@Z
	??0?$basic_ifstream@DU?$char_traits@D@std@@@std@@QAE@ABV?$basic_string@DU?$char_traits@D@std@@V?$allocator@D@2@@1@HH@Z
	??0?$basic_ifstream@DU?$char_traits@D@std@@@std@@QAE@PBDHH@Z
	??0?$basic_istringstream@DU?$char_traits@D@std@@V?$allocator@D@2@@std@@QAE@ABV?$basic_string@DU?$char_traits@D@std@@V?$allocator@D@2@@1@H@Z
	??0?$basic_ofstream@DU?$char_traits@D@std@@@std@@QAE@PBDHH@Z
	??0?$basic_string@DU?$char_traits@D@std@@V?$allocator@D@2@@std@@QAE@$$QAV01@@Z
	??0?$basic_string@DU?$char_traits@D@std@@V?$allocator@D@2@@std@@QAE@ABV01@@Z
	??0?$basic_string@DU?$char_traits@D@std@@V?$allocator@D@2@@std@@QAE@ABV01@IIABV?$allocator@D@1@@Z
	??0?$basic_string@DU?$char_traits@D@std@@V?$allocator@D@2@@std@@QAE@ID@Z
	??0?$basic_string@DU?$char_traits@D@std@@V?$allocator@D@2@@std@@QAE@QBD@Z
	??0?$basic_string@DU?$char_traits@D@std@@V?$allocator@D@2@@std@@QAE@XZ
	??0?$basic_stringbuf@DU?$char_traits@D@std@@V?$allocator@D@2@@std@@QAE@ABV?$basic_string@DU?$char_traits@D@std@@V?$allocator@D@2@@1@H@Z
	??0?$basic_stringstream@DU?$char_traits@D@std@@V?$allocator@D@2@@std@@QAE@ABV?$basic_string@DU?$char_traits@D@std@@V?$allocator@D@2@@1@H@Z
	??0?$fpos@U_Mbstatet@@@std@@QAE@U_Mbstatet@@_J@Z
	??0?$fpos@U_Mbstatet@@@std@@QAE@_J@Z
	??0?$function@$$A6AXAAVParticle2D@BookEngine@@M@Z@std@@QAE@ABV01@@Z
	??0?$function@$$A6AXAAVParticle2D@BookEngine@@M@Z@std@@QAE@XZ
	??0?$list@U?$pair@$$CBI_N@std@@V?$allocator@U?$pair@$$CBI_N@std@@@2@@std@@QAE@ABV?$allocator@U?$pair@$$CBI_N@std@@@1@@Z
	??0?$map@V?$basic_string@DU?$char_traits@D@std@@V?$allocator@D@2@@std@@PAUMix_Chunk@@U?$less@V?$basic_string@DU?$char_traits@D@std@@V?$allocator@D@2@@std@@@2@V?$allocator@U?$pair@$$CBV?$basic_string@DU?$char_traits@D@std@@V?$allocator@D@2@@std@@PAUMix_Chunk@@@std@@@2@@std@@QAE@XZ
	??0?$map@V?$basic_string@DU?$char_traits@D@std@@V?$allocator@D@2@@std@@PAU_Mix_Music@@U?$less@V?$basic_string@DU?$char_traits@D@std@@V?$allocator@D@2@@std@@@2@V?$allocator@U?$pair@$$CBV?$basic_string@DU?$char_traits@D@std@@V?$allocator@D@2@@std@@PAU_Mix_Music@@@std@@@2@@std@@QAE@XZ
	??0?$map@V?$basic_string@DU?$char_traits@D@std@@V?$allocator@D@2@@std@@UGLTexture@BookEngine@@U?$less@V?$basic_string@DU?$char_traits@D@std@@V?$allocator@D@2@@std@@@2@V?$allocator@U?$pair@$$CBV?$basic_string@DU?$char_traits@D@std@@V?$allocator@D@2@@std@@UGLTexture@BookEngine@@@std@@@2@@std@@QAE@XZ
	??0?$tmat4x4@M$0A@@glm@@QAE@ABM@Z
	??0?$tmat4x4@M$0A@@glm@@QAE@W4ctor@1@@Z
	??0?$tmat4x4@M$0A@@glm@@QAE@XZ
	??0?$tuple@$$V@std@@QAE@XZ
	??0?$tvec2@M$0A@@glm@@QAE@ABM0@Z
	??0?$tvec2@M$0A@@glm@@QAE@ABM@Z
	??0?$tvec2@M$0A@@glm@@QAE@XZ
	??0?$tvec3@M$0A@@glm@@QAE@ABM00@Z
	??0?$tvec3@M$0A@@glm@@QAE@XZ
	??0?$tvec4@H$0A@@glm@@QAE@XZ
	??0?$tvec4@M$0A@@glm@@QAE@MMMM@Z
	??0?$tvec4@M$0A@@glm@@QAE@XZ
	??0?$unordered_map@I_NU?$hash@I@std@@U?$equal_to@I@2@V?$allocator@U?$pair@$$CBI_N@std@@@2@@std@@QAE@XZ
	??0?$vector@DV?$allocator@D@std@@@std@@QAE@IABV?$allocator@D@1@@Z
	??0?$vector@EV?$allocator@E@std@@@std@@QAE@ABV01@@Z
	??0?$vector@EV?$allocator@E@std@@@std@@QAE@IABV?$allocator@E@1@@Z
	??0?$vector@EV?$allocator@E@std@@@std@@QAE@XZ
	??0?$vector@HV?$allocator@H@std@@@std@@QAE@XZ
	??0?$vector@IV?$allocator@I@std@@@std@@QAE@XZ
	??0?$vector@KV?$allocator@K@std@@@std@@QAE@IABKABV?$allocator@K@1@@Z
	??0?$vector@KV?$allocator@K@std@@@std@@QAE@IABV?$allocator@K@1@@Z
	??0?$vector@KV?$allocator@K@std@@@std@@QAE@XZ
	??0?$vector@PAVGlyph@BookEngine@@V?$allocator@PAVGlyph@BookEngine@@@std@@@std@@QAE@XZ
	??0?$vector@PAVIScreen@BookEngine@@V?$allocator@PAVIScreen@BookEngine@@@std@@@std@@QAE@XZ
	??0?$vector@PAVParticleBatch2D@BookEngine@@V?$allocator@PAVParticleBatch2D@BookEngine@@@std@@@std@@QAE@XZ
	??0?$vector@U?$tvec2@M$0A@@glm@@V?$allocator@U?$tvec2@M$0A@@glm@@@std@@@std@@QAE@XZ
	??0?$vector@U?$tvec3@M$0A@@glm@@V?$allocator@U?$tvec3@M$0A@@glm@@@std@@@std@@QAE@XZ
	??0?$vector@U?$tvec4@M$0A@@glm@@V?$allocator@U?$tvec4@M$0A@@glm@@@std@@@std@@QAE@XZ
	??0?$vector@UVertex2D@BookEngine@@V?$allocator@UVertex2D@BookEngine@@@std@@@std@@QAE@XZ
	??0?$vector@V?$_List_unchecked_iterator@V?$_List_val@U?$_List_simple_types@U?$pair@$$CBI_N@std@@@std@@@std@@@std@@V?$allocator@V?$_List_unchecked_iterator@V?$_List_val@U?$_List_simple_types@U?$pair@$$CBI_N@std@@@std@@@std@@@std@@@2@@std@@QAE@ABV?$allocator@V?$_List_unchecked_iterator@V?$_List_val@U?$_List_simple_types@U?$pair@$$CBI_N@std@@@std@@@std@@@std@@@1@@Z
	??0?$vector@VBatchRenderr@BookEngine@@V?$allocator@VBatchRenderr@BookEngine@@@std@@@std@@QAE@XZ
	??0?$vector@VGlyph@BookEngine@@V?$allocator@VGlyph@BookEngine@@@std@@@std@@QAE@XZ
	??0AnimatedSprite@BookEngine@@QAE@M_N0@Z
	??0Animation@BookEngine@@QAE@XZ
	??0AudioManager@BookEngine@@QAE@XZ
	??0BatchRenderr@BookEngine@@QAE@III@Z
	??0Camera2D@BookEngine@@QAE@XZ
	??0Camera3D@BookEngine@@QAE@XZ
	??0CharGlyph@BookEngine@@QAE@XZ
	??0ColorRGBA8@BookEngine@@QAE@EEEE@Z
	??0ColorRGBA8@BookEngine@@QAE@XZ
	??0Exception@BookEngine@@QAE@ABV01@@Z
	??0Exception@BookEngine@@QAE@ABV?$basic_string@DU?$char_traits@D@std@@V?$allocator@D@2@@std@@@Z
	??0FpsLimiter@BookEngine@@QAE@XZ
	??0GameObject@BookEngine@@QAE@XZ
	??0Glyph@BookEngine@@QAE@ABU?$tvec4@M$0A@@glm@@0IMABUColorRGBA8@1@@Z
	??0Glyph@BookEngine@@QAE@ABU?$tvec4@M$0A@@glm@@0IMABUColorRGBA8@1@M@Z
	??0IGame@BookEngine@@QAE@XZ
	??0InputManager@BookEngine@@QAE@XZ
	??0Mesh@BookEngine@@QAE@XZ
	??0Music@BookEngine@@QAE@XZ
	??0Particle2D@BookEngine@@QAE@XZ
	??0ParticleBatch2D@BookEngine@@QAE@XZ
	??0ParticleManager2D@BookEngine@@QAE@XZ
	??0ScreenList@BookEngine@@QAE@PAVIGame@1@@Z
	??0ShaderManager@BookEngine@@QAE@XZ
	??0SoundEffect@BookEngine@@QAE@XZ
	??0Sprite@BookEngine@@QAE@XZ
	??0SpriteBatch@BookEngine@@QAE@XZ
	??0SpriteFont@BookEngine@@QAE@PBDHDD@Z
	??0StateList@@QAE@XZ
	??0TextureCache@BookEngine@@QAE@XZ
	??0Vertex2D@BookEngine@@QAE@XZ
	??0Window@BookEngine@@QAE@XZ
	??0_Bxty@?$_String_val@U?$_Simple_types@D@std@@@std@@QAE@XZ
	??0_Container_base12@std@@QAE@XZ
	??0_Container_proxy@std@@QAE@XZ
	??0_Iterator_base12@std@@QAE@ABU01@@Z
	??0_Iterator_base12@std@@QAE@XZ
	??0_Sentry_base@?$basic_istream@DU?$char_traits@D@std@@@std@@QAE@AAV12@@Z
	??0_Sentry_base@?$basic_ostream@DU?$char_traits@D@std@@@std@@QAE@AAV12@@Z
	??0bad_cast@std@@QAE@ABV01@@Z
	??0bad_cast@std@@QAE@XZ
	??0exception@std@@QAE@ABV01@@Z
	??0exception@std@@QAE@QBDH@Z
	??0sentry@?$basic_istream@DU?$char_traits@D@std@@@std@@QAE@AAV12@_N@Z
	??0sentry@?$basic_ostream@DU?$char_traits@D@std@@@std@@QAE@AAV12@@Z
	??1?$_Compressed_pair@U?$less@V?$basic_string@DU?$char_traits@D@std@@V?$allocator@D@2@@std@@@std@@V?$_Compressed_pair@V?$allocator@U?$_Tree_node@U?$pair@$$CBV?$basic_string@DU?$char_traits@D@std@@V?$allocator@D@2@@std@@PAUMix_Chunk@@@std@@PAX@std@@@std@@V?$_Tree_val@U?$_Tree_simple_types@U?$pair@$$CBV?$basic_string@DU?$char_traits@D@std@@V?$allocator@D@2@@std@@PAUMix_Chunk@@@std@@@std@@@2@$00@2@$00@std@@QAE@XZ
	??1?$_Compressed_pair@U?$less@V?$basic_string@DU?$char_traits@D@std@@V?$allocator@D@2@@std@@@std@@V?$_Compressed_pair@V?$allocator@U?$_Tree_node@U?$pair@$$CBV?$basic_string@DU?$char_traits@D@std@@V?$allocator@D@2@@std@@PAU_Mix_Music@@@std@@PAX@std@@@std@@V?$_Tree_val@U?$_Tree_simple_types@U?$pair@$$CBV?$basic_string@DU?$char_traits@D@std@@V?$allocator@D@2@@std@@PAU_Mix_Music@@@std@@@std@@@2@$00@2@$00@std@@QAE@XZ
	??1?$_Compressed_pair@U?$less@V?$basic_string@DU?$char_traits@D@std@@V?$allocator@D@2@@std@@@std@@V?$_Compressed_pair@V?$allocator@U?$_Tree_node@U?$pair@$$CBV?$basic_string@DU?$char_traits@D@std@@V?$allocator@D@2@@std@@UGLTexture@BookEngine@@@std@@PAX@std@@@std@@V?$_Tree_val@U?$_Tree_simple_types@U?$pair@$$CBV?$basic_string@DU?$char_traits@D@std@@V?$allocator@D@2@@std@@UGLTexture@BookEngine@@@std@@@std@@@2@$00@2@$00@std@@QAE@XZ
	??1?$_Compressed_pair@V?$allocator@D@std@@V?$_String_val@U?$_Simple_types@D@std@@@2@$00@std@@QAE@XZ
	??1?$_Compressed_pair@V?$allocator@D@std@@V?$_Vector_val@U?$_Simple_types@D@std@@@2@$00@std@@QAE@XZ
	??1?$_Compressed_pair@V?$allocator@E@std@@V?$_Vector_val@U?$_Simple_types@E@std@@@2@$00@std@@QAE@XZ
	??1?$_Compressed_pair@V?$allocator@H@std@@V?$_Vector_val@U?$_Simple_types@H@std@@@2@$00@std@@QAE@XZ
	??1?$_Compressed_pair@V?$allocator@I@std@@V?$_Vector_val@U?$_Simple_types@I@std@@@2@$00@std@@QAE@XZ
	??1?$_Compressed_pair@V?$allocator@K@std@@V?$_Vector_val@U?$_Simple_types@K@std@@@2@$00@std@@QAE@XZ
	??1?$_Compressed_pair@V?$allocator@PAVGlyph@BookEngine@@@std@@V?$_Vector_val@U?$_Simple_types@PAVGlyph@BookEngine@@@std@@@2@$00@std@@QAE@XZ
	??1?$_Compressed_pair@V?$allocator@PAVIScreen@BookEngine@@@std@@V?$_Vector_val@U?$_Simple_types@PAVIScreen@BookEngine@@@std@@@2@$00@std@@QAE@XZ
	??1?$_Compressed_pair@V?$allocator@PAVParticleBatch2D@BookEngine@@@std@@V?$_Vector_val@U?$_Simple_types@PAVParticleBatch2D@BookEngine@@@std@@@2@$00@std@@QAE@XZ
	??1?$_Compressed_pair@V?$allocator@U?$_List_node@U?$pair@$$CBI_N@std@@PAX@std@@@std@@V?$_List_val@U?$_List_simple_types@U?$pair@$$CBI_N@std@@@std@@@2@$00@std@@QAE@XZ
	??1?$_Compressed_pair@V?$allocator@U?$_Tree_node@U?$pair@$$CBV?$basic_string@DU?$char_traits@D@std@@V?$allocator@D@2@@std@@PAUMix_Chunk@@@std@@PAX@std@@@std@@V?$_Tree_val@U?$_Tree_simple_types@U?$pair@$$CBV?$basic_string@DU?$char_traits@D@std@@V?$allocator@D@2@@std@@PAUMix_Chunk@@@std@@@std@@@2@$00@std@@QAE@XZ
	??1?$_Compressed_pair@V?$allocator@U?$_Tree_node@U?$pair@$$CBV?$basic_string@DU?$char_traits@D@std@@V?$allocator@D@2@@std@@PAU_Mix_Music@@@std@@PAX@std@@@std@@V?$_Tree_val@U?$_Tree_simple_types@U?$pair@$$CBV?$basic_string@DU?$char_traits@D@std@@V?$allocator@D@2@@std@@PAU_Mix_Music@@@std@@@std@@@2@$00@std@@QAE@XZ
	??1?$_Compressed_pair@V?$allocator@U?$_Tree_node@U?$pair@$$CBV?$basic_string@DU?$char_traits@D@std@@V?$allocator@D@2@@std@@UGLTexture@BookEngine@@@std@@PAX@std@@@std@@V?$_Tree_val@U?$_Tree_simple_types@U?$pair@$$CBV?$basic_string@DU?$char_traits@D@std@@V?$allocator@D@2@@std@@UGLTexture@BookEngine@@@std@@@std@@@2@$00@std@@QAE@XZ
	??1?$_Compressed_pair@V?$allocator@U?$tvec2@M$0A@@glm@@@std@@V?$_Vector_val@U?$_Simple_types@U?$tvec2@M$0A@@glm@@@std@@@2@$00@std@@QAE@XZ
	??1?$_Compressed_pair@V?$allocator@U?$tvec3@M$0A@@glm@@@std@@V?$_Vector_val@U?$_Simple_types@U?$tvec3@M$0A@@glm@@@std@@@2@$00@std@@QAE@XZ
	??1?$_Compressed_pair@V?$allocator@U?$tvec4@M$0A@@glm@@@std@@V?$_Vector_val@U?$_Simple_types@U?$tvec4@M$0A@@glm@@@std@@@2@$00@std@@QAE@XZ
	??1?$_Compressed_pair@V?$allocator@UVertex2D@BookEngine@@@std@@V?$_Vector_val@U?$_Simple_types@UVertex2D@BookEngine@@@std@@@2@$00@std@@QAE@XZ
	??1?$_Compressed_pair@V?$allocator@V?$_List_unchecked_iterator@V?$_List_val@U?$_List_simple_types@U?$pair@$$CBI_N@std@@@std@@@std@@@std@@@std@@V?$_Vector_val@U?$_Simple_types@V?$_List_unchecked_iterator@V?$_List_val@U?$_List_simple_types@U?$pair@$$CBI_N@std@@@std@@@std@@@std@@@std@@@2@$00@std@@QAE@XZ
	??1?$_Compressed_pair@V?$allocator@VBatchRenderr@BookEngine@@@std@@V?$_Vector_val@U?$_Simple_types@VBatchRenderr@BookEngine@@@std@@@2@$00@std@@QAE@XZ
	??1?$_Compressed_pair@V?$allocator@VGlyph@BookEngine@@@std@@V?$_Vector_val@U?$_Simple_types@VGlyph@BookEngine@@@std@@@2@$00@std@@QAE@XZ
	??1?$_Func_class@XAAVParticle2D@BookEngine@@M@std@@QAE@XZ
	??1?$_Hash@V?$_Umap_traits@I_NV?$_Uhash_compare@IU?$hash@I@std@@U?$equal_to@I@2@@std@@V?$allocator@U?$pair@$$CBI_N@std@@@2@$0A@@std@@@std@@QAE@XZ
	??1?$_List_alloc@U?$_List_base_types@U?$pair@$$CBI_N@std@@V?$allocator@U?$pair@$$CBI_N@std@@@2@@std@@@std@@QAE@XZ
	??1?$_List_buy@U?$pair@$$CBI_N@std@@V?$allocator@U?$pair@$$CBI_N@std@@@2@@std@@QAE@XZ
	??1?$_List_const_iterator@V?$_List_val@U?$_List_simple_types@U?$pair@$$CBI_N@std@@@std@@@std@@@std@@QAE@XZ
	??1?$_List_iterator@V?$_List_val@U?$_List_simple_types@U?$pair@$$CBI_N@std@@@std@@@std@@@std@@QAE@XZ
	??1?$_List_unchecked_const_iterator@V?$_List_val@U?$_List_simple_types@U?$pair@$$CBI_N@std@@@std@@@std@@U_Iterator_base12@2@@std@@QAE@XZ
	??1?$_List_val@U?$_List_simple_types@U?$pair@$$CBI_N@std@@@std@@@std@@QAE@XZ
	??1?$_String_alloc@U?$_String_base_types@DV?$allocator@D@std@@@std@@@std@@QAE@XZ
	??1?$_String_const_iterator@V?$_String_val@U?$_Simple_types@D@std@@@std@@@std@@QAE@XZ
	??1?$_String_iterator@V?$_String_val@U?$_Simple_types@D@std@@@std@@@std@@QAE@XZ
	??1?$_String_val@U?$_Simple_types@D@std@@@std@@QAE@XZ
	??1?$_Temporary_buffer@PAVGlyph@BookEngine@@@std@@QAE@XZ
	??1?$_Temporary_range@PAVGlyph@BookEngine@@@std@@QAE@XZ
	??1?$_Tree@V?$_Tmap_traits@V?$basic_string@DU?$char_traits@D@std@@V?$allocator@D@2@@std@@PAUMix_Chunk@@U?$less@V?$basic_string@DU?$char_traits@D@std@@V?$allocator@D@2@@std@@@2@V?$allocator@U?$pair@$$CBV?$basic_string@DU?$char_traits@D@std@@V?$allocator@D@2@@std@@PAUMix_Chunk@@@std@@@2@$0A@@std@@@std@@QAE@XZ
	??1?$_Tree@V?$_Tmap_traits@V?$basic_string@DU?$char_traits@D@std@@V?$allocator@D@2@@std@@PAU_Mix_Music@@U?$less@V?$basic_string@DU?$char_traits@D@std@@V?$allocator@D@2@@std@@@2@V?$allocator@U?$pair@$$CBV?$basic_string@DU?$char_traits@D@std@@V?$allocator@D@2@@std@@PAU_Mix_Music@@@std@@@2@$0A@@std@@@std@@QAE@XZ
	??1?$_Tree@V?$_Tmap_traits@V?$basic_string@DU?$char_traits@D@std@@V?$allocator@D@2@@std@@UGLTexture@BookEngine@@U?$less@V?$basic_string@DU?$char_traits@D@std@@V?$allocator@D@2@@std@@@2@V?$allocator@U?$pair@$$CBV?$basic_string@DU?$char_traits@D@std@@V?$allocator@D@2@@std@@UGLTexture@BookEngine@@@std@@@2@$0A@@std@@@std@@QAE@XZ
	??1?$_Tree_comp_alloc@V?$_Tmap_traits@V?$basic_string@DU?$char_traits@D@std@@V?$allocator@D@2@@std@@PAUMix_Chunk@@U?$less@V?$basic_string@DU?$char_traits@D@std@@V?$allocator@D@2@@std@@@2@V?$allocator@U?$pair@$$CBV?$basic_string@DU?$char_traits@D@std@@V?$allocator@D@2@@std@@PAUMix_Chunk@@@std@@@2@$0A@@std@@@std@@QAE@XZ
	??1?$_Tree_comp_alloc@V?$_Tmap_traits@V?$basic_string@DU?$char_traits@D@std@@V?$allocator@D@2@@std@@PAU_Mix_Music@@U?$less@V?$basic_string@DU?$char_traits@D@std@@V?$allocator@D@2@@std@@@2@V?$allocator@U?$pair@$$CBV?$basic_string@DU?$char_traits@D@std@@V?$allocator@D@2@@std@@PAU_Mix_Music@@@std@@@2@$0A@@std@@@std@@QAE@XZ
	??1?$_Tree_comp_alloc@V?$_Tmap_traits@V?$basic_string@DU?$char_traits@D@std@@V?$allocator@D@2@@std@@UGLTexture@BookEngine@@U?$less@V?$basic_string@DU?$char_traits@D@std@@V?$allocator@D@2@@std@@@2@V?$allocator@U?$pair@$$CBV?$basic_string@DU?$char_traits@D@std@@V?$allocator@D@2@@std@@UGLTexture@BookEngine@@@std@@@2@$0A@@std@@@std@@QAE@XZ
	??1?$_Tree_const_iterator@V?$_Tree_val@U?$_Tree_simple_types@U?$pair@$$CBV?$basic_string@DU?$char_traits@D@std@@V?$allocator@D@2@@std@@PAUMix_Chunk@@@std@@@std@@@std@@@std@@QAE@XZ
	??1?$_Tree_const_iterator@V?$_Tree_val@U?$_Tree_simple_types@U?$pair@$$CBV?$basic_string@DU?$char_traits@D@std@@V?$allocator@D@2@@std@@PAU_Mix_Music@@@std@@@std@@@std@@@std@@QAE@XZ
	??1?$_Tree_const_iterator@V?$_Tree_val@U?$_Tree_simple_types@U?$pair@$$CBV?$basic_string@DU?$char_traits@D@std@@V?$allocator@D@2@@std@@UGLTexture@BookEngine@@@std@@@std@@@std@@@std@@QAE@XZ
	??1?$_Tree_iterator@V?$_Tree_val@U?$_Tree_simple_types@U?$pair@$$CBV?$basic_string@DU?$char_traits@D@std@@V?$allocator@D@2@@std@@PAUMix_Chunk@@@std@@@std@@@std@@@std@@QAE@XZ
	??1?$_Tree_iterator@V?$_Tree_val@U?$_Tree_simple_types@U?$pair@$$CBV?$basic_string@DU?$char_traits@D@std@@V?$allocator@D@2@@std@@PAU_Mix_Music@@@std@@@std@@@std@@@std@@QAE@XZ
	??1?$_Tree_iterator@V?$_Tree_val@U?$_Tree_simple_types@U?$pair@$$CBV?$basic_string@DU?$char_traits@D@std@@V?$allocator@D@2@@std@@UGLTexture@BookEngine@@@std@@@std@@@std@@@std@@QAE@XZ
	??1?$_Tree_unchecked_const_iterator@V?$_Tree_val@U?$_Tree_simple_types@U?$pair@$$CBV?$basic_string@DU?$char_traits@D@std@@V?$allocator@D@2@@std@@PAUMix_Chunk@@@std@@@std@@@std@@U_Iterator_base12@2@@std@@QAE@XZ
	??1?$_Tree_unchecked_const_iterator@V?$_Tree_val@U?$_Tree_simple_types@U?$pair@$$CBV?$basic_string@DU?$char_traits@D@std@@V?$allocator@D@2@@std@@PAU_Mix_Music@@@std@@@std@@@std@@U_Iterator_base12@2@@std@@QAE@XZ
	??1?$_Tree_unchecked_const_iterator@V?$_Tree_val@U?$_Tree_simple_types@U?$pair@$$CBV?$basic_string@DU?$char_traits@D@std@@V?$allocator@D@2@@std@@UGLTexture@BookEngine@@@std@@@std@@@std@@U_Iterator_base12@2@@std@@QAE@XZ
	??1?$_Tree_val@U?$_Tree_simple_types@U?$pair@$$CBV?$basic_string@DU?$char_traits@D@std@@V?$allocator@D@2@@std@@PAUMix_Chunk@@@std@@@std@@@std@@QAE@XZ
	??1?$_Tree_val@U?$_Tree_simple_types@U?$pair@$$CBV?$basic_string@DU?$char_traits@D@std@@V?$allocator@D@2@@std@@PAU_Mix_Music@@@std@@@std@@@std@@QAE@XZ
	??1?$_Tree_val@U?$_Tree_simple_types@U?$pair@$$CBV?$basic_string@DU?$char_traits@D@std@@V?$allocator@D@2@@std@@UGLTexture@BookEngine@@@std@@@std@@@std@@QAE@XZ
	??1?$_Vector_alloc@U?$_Vec_base_types@DV?$allocator@D@std@@@std@@@std@@QAE@XZ
	??1?$_Vector_alloc@U?$_Vec_base_types@EV?$allocator@E@std@@@std@@@std@@QAE@XZ
	??1?$_Vector_alloc@U?$_Vec_base_types@HV?$allocator@H@std@@@std@@@std@@QAE@XZ
	??1?$_Vector_alloc@U?$_Vec_base_types@IV?$allocator@I@std@@@std@@@std@@QAE@XZ
	??1?$_Vector_alloc@U?$_Vec_base_types@KV?$allocator@K@std@@@std@@@std@@QAE@XZ
	??1?$_Vector_alloc@U?$_Vec_base_types@PAVGlyph@BookEngine@@V?$allocator@PAVGlyph@BookEngine@@@std@@@std@@@std@@QAE@XZ
	??1?$_Vector_alloc@U?$_Vec_base_types@PAVIScreen@BookEngine@@V?$allocator@PAVIScreen@BookEngine@@@std@@@std@@@std@@QAE@XZ
	??1?$_Vector_alloc@U?$_Vec_base_types@PAVParticleBatch2D@BookEngine@@V?$allocator@PAVParticleBatch2D@BookEngine@@@std@@@std@@@std@@QAE@XZ
	??1?$_Vector_alloc@U?$_Vec_base_types@U?$tvec2@M$0A@@glm@@V?$allocator@U?$tvec2@M$0A@@glm@@@std@@@std@@@std@@QAE@XZ
	??1?$_Vector_alloc@U?$_Vec_base_types@U?$tvec3@M$0A@@glm@@V?$allocator@U?$tvec3@M$0A@@glm@@@std@@@std@@@std@@QAE@XZ
	??1?$_Vector_alloc@U?$_Vec_base_types@UVertex2D@BookEngine@@V?$allocator@UVertex2D@BookEngine@@@std@@@std@@@std@@QAE@XZ
	??1?$_Vector_alloc@U?$_Vec_base_types@V?$_List_unchecked_iterator@V?$_List_val@U?$_List_simple_types@U?$pair@$$CBI_N@std@@@std@@@std@@@std@@V?$allocator@V?$_List_unchecked_iterator@V?$_List_val@U?$_List_simple_types@U?$pair@$$CBI_N@std@@@std@@@std@@@std@@@2@@std@@@std@@QAE@XZ
	??1?$_Vector_alloc@U?$_Vec_base_types@VBatchRenderr@BookEngine@@V?$allocator@VBatchRenderr@BookEngine@@@std@@@std@@@std@@QAE@XZ
	??1?$_Vector_alloc@U?$_Vec_base_types@VGlyph@BookEngine@@V?$allocator@VGlyph@BookEngine@@@std@@@std@@@std@@QAE@XZ
	??1?$_Vector_const_iterator@V?$_Vector_val@U?$_Simple_types@E@std@@@std@@@std@@QAE@XZ
	??1?$_Vector_const_iterator@V?$_Vector_val@U?$_Simple_types@PAVGlyph@BookEngine@@@std@@@std@@@std@@QAE@XZ
	??1?$_Vector_iterator@V?$_Vector_val@U?$_Simple_types@E@std@@@std@@@std@@QAE@XZ
	??1?$_Vector_iterator@V?$_Vector_val@U?$_Simple_types@PAVGlyph@BookEngine@@@std@@@std@@@std@@QAE@XZ
	??1?$_Vector_val@U?$_Simple_types@D@std@@@std@@QAE@XZ
	??1?$_Vector_val@U?$_Simple_types@E@std@@@std@@QAE@XZ
	??1?$_Vector_val@U?$_Simple_types@H@std@@@std@@QAE@XZ
	??1?$_Vector_val@U?$_Simple_types@I@std@@@std@@QAE@XZ
	??1?$_Vector_val@U?$_Simple_types@K@std@@@std@@QAE@XZ
	??1?$_Vector_val@U?$_Simple_types@PAVGlyph@BookEngine@@@std@@@std@@QAE@XZ
	??1?$_Vector_val@U?$_Simple_types@PAVIScreen@BookEngine@@@std@@@std@@QAE@XZ
	??1?$_Vector_val@U?$_Simple_types@PAVParticleBatch2D@BookEngine@@@std@@@std@@QAE@XZ
	??1?$_Vector_val@U?$_Simple_types@U?$tvec2@M$0A@@glm@@@std@@@std@@QAE@XZ
	??1?$_Vector_val@U?$_Simple_types@U?$tvec3@M$0A@@glm@@@std@@@std@@QAE@XZ
	??1?$_Vector_val@U?$_Simple_types@U?$tvec4@M$0A@@glm@@@std@@@std@@QAE@XZ
	??1?$_Vector_val@U?$_Simple_types@UVertex2D@BookEngine@@@std@@@std@@QAE@XZ
	??1?$_Vector_val@U?$_Simple_types@V?$_List_unchecked_iterator@V?$_List_val@U?$_List_simple_types@U?$pair@$$CBI_N@std@@@std@@@std@@@std@@@std@@@std@@QAE@XZ
	??1?$_Vector_val@U?$_Simple_types@VBatchRenderr@BookEngine@@@std@@@std@@QAE@XZ
	??1?$_Vector_val@U?$_Simple_types@VGlyph@BookEngine@@@std@@@std@@QAE@XZ
	??1?$basic_filebuf@DU?$char_traits@D@std@@@std@@UAE@XZ
	??1?$basic_ifstream@DU?$char_traits@D@std@@@std@@UAE@XZ
	??1?$basic_istringstream@DU?$char_traits@D@std@@V?$allocator@D@2@@std@@UAE@XZ
	??1?$basic_ofstream@DU?$char_traits@D@std@@@std@@UAE@XZ
	??1?$basic_string@DU?$char_traits@D@std@@V?$allocator@D@2@@std@@QAE@XZ
	??1?$basic_stringbuf@DU?$char_traits@D@std@@V?$allocator@D@2@@std@@UAE@XZ
	??1?$basic_stringstream@DU?$char_traits@D@std@@V?$allocator@D@2@@std@@UAE@XZ
	??1?$function@$$A6AXAAVParticle2D@BookEngine@@M@Z@std@@QAE@XZ
	??1?$list@U?$pair@$$CBI_N@std@@V?$allocator@U?$pair@$$CBI_N@std@@@2@@std@@QAE@XZ
	??1?$map@V?$basic_string@DU?$char_traits@D@std@@V?$allocator@D@2@@std@@PAUMix_Chunk@@U?$less@V?$basic_string@DU?$char_traits@D@std@@V?$allocator@D@2@@std@@@2@V?$allocator@U?$pair@$$CBV?$basic_string@DU?$char_traits@D@std@@V?$allocator@D@2@@std@@PAUMix_Chunk@@@std@@@2@@std@@QAE@XZ
	??1?$map@V?$basic_string@DU?$char_traits@D@std@@V?$allocator@D@2@@std@@PAU_Mix_Music@@U?$less@V?$basic_string@DU?$char_traits@D@std@@V?$allocator@D@2@@std@@@2@V?$allocator@U?$pair@$$CBV?$basic_string@DU?$char_traits@D@std@@V?$allocator@D@2@@std@@PAU_Mix_Music@@@std@@@2@@std@@QAE@XZ
	??1?$map@V?$basic_string@DU?$char_traits@D@std@@V?$allocator@D@2@@std@@UGLTexture@BookEngine@@U?$less@V?$basic_string@DU?$char_traits@D@std@@V?$allocator@D@2@@std@@@2@V?$allocator@U?$pair@$$CBV?$basic_string@DU?$char_traits@D@std@@V?$allocator@D@2@@std@@UGLTexture@BookEngine@@@std@@@2@@std@@QAE@XZ
	??1?$pair@$$CBV?$basic_string@DU?$char_traits@D@std@@V?$allocator@D@2@@std@@PAUMix_Chunk@@@std@@QAE@XZ
	??1?$pair@$$CBV?$basic_string@DU?$char_traits@D@std@@V?$allocator@D@2@@std@@PAU_Mix_Music@@@std@@QAE@XZ
	??1?$pair@$$CBV?$basic_string@DU?$char_traits@D@std@@V?$allocator@D@2@@std@@UGLTexture@BookEngine@@@std@@QAE@XZ
	??1?$pair@V?$_List_iterator@V?$_List_val@U?$_List_simple_types@U?$pair@$$CBI_N@std@@@std@@@std@@@std@@_N@std@@QAE@XZ
	??1?$pair@V?$_Tree_iterator@V?$_Tree_val@U?$_Tree_simple_types@U?$pair@$$CBV?$basic_string@DU?$char_traits@D@std@@V?$allocator@D@2@@std@@PAUMix_Chunk@@@std@@@std@@@std@@@std@@_N@std@@QAE@XZ
	??1?$pair@V?$_Tree_iterator@V?$_Tree_val@U?$_Tree_simple_types@U?$pair@$$CBV?$basic_string@DU?$char_traits@D@std@@V?$allocator@D@2@@std@@PAU_Mix_Music@@@std@@@std@@@std@@@std@@_N@std@@QAE@XZ
	??1?$pair@V?$_Tree_iterator@V?$_Tree_val@U?$_Tree_simple_types@U?$pair@$$CBV?$basic_string@DU?$char_traits@D@std@@V?$allocator@D@2@@std@@UGLTexture@BookEngine@@@std@@@std@@@std@@@std@@_N@std@@QAE@XZ
	??1?$pair@V?$basic_string@DU?$char_traits@D@std@@V?$allocator@D@2@@std@@UGLTexture@BookEngine@@@std@@QAE@XZ
	??1?$unique_ptr@VScreenList@BookEngine@@U?$default_delete@VScreenList@BookEngine@@@std@@@std@@QAE@XZ
	??1?$unordered_map@I_NU?$hash@I@std@@U?$equal_to@I@2@V?$allocator@U?$pair@$$CBI_N@std@@@2@@std@@QAE@XZ
	??1?$vector@DV?$allocator@D@std@@@std@@QAE@XZ
	??1?$vector@EV?$allocator@E@std@@@std@@QAE@XZ
	??1?$vector@HV?$allocator@H@std@@@std@@QAE@XZ
	??1?$vector@IV?$allocator@I@std@@@std@@QAE@XZ
	??1?$vector@KV?$allocator@K@std@@@std@@QAE@XZ
	??1?$vector@PAVGlyph@BookEngine@@V?$allocator@PAVGlyph@BookEngine@@@std@@@std@@QAE@XZ
	??1?$vector@PAVIScreen@BookEngine@@V?$allocator@PAVIScreen@BookEngine@@@std@@@std@@QAE@XZ
	??1?$vector@PAVParticleBatch2D@BookEngine@@V?$allocator@PAVParticleBatch2D@BookEngine@@@std@@@std@@QAE@XZ
	??1?$vector@U?$tvec2@M$0A@@glm@@V?$allocator@U?$tvec2@M$0A@@glm@@@std@@@std@@QAE@XZ
	??1?$vector@U?$tvec3@M$0A@@glm@@V?$allocator@U?$tvec3@M$0A@@glm@@@std@@@std@@QAE@XZ
	??1?$vector@UVertex2D@BookEngine@@V?$allocator@UVertex2D@BookEngine@@@std@@@std@@QAE@XZ
	??1?$vector@V?$_List_unchecked_iterator@V?$_List_val@U?$_List_simple_types@U?$pair@$$CBI_N@std@@@std@@@std@@@std@@V?$allocator@V?$_List_unchecked_iterator@V?$_List_val@U?$_List_simple_types@U?$pair@$$CBI_N@std@@@std@@@std@@@std@@@2@@std@@QAE@XZ
	??1?$vector@VBatchRenderr@BookEngine@@V?$allocator@VBatchRenderr@BookEngine@@@std@@@std@@QAE@XZ
	??1?$vector@VGlyph@BookEngine@@V?$allocator@VGlyph@BookEngine@@@std@@@std@@QAE@XZ
	??1AudioManager@BookEngine@@QAE@XZ
	??1Camera2D@BookEngine@@QAE@XZ
	??1Camera3D@BookEngine@@QAE@XZ
	??1Exception@BookEngine@@QAE@XZ
	??1GameObject@BookEngine@@UAE@XZ
	??1IGame@BookEngine@@UAE@XZ
	??1InputManager@BookEngine@@QAE@XZ
	??1Mesh@BookEngine@@QAE@XZ
	??1ParticleBatch2D@BookEngine@@QAE@XZ
	??1ParticleManager2D@BookEngine@@QAE@XZ
	??1ScreenList@BookEngine@@QAE@XZ
	??1ShaderManager@BookEngine@@QAE@XZ
	??1Sprite@BookEngine@@QAE@XZ
	??1SpriteBatch@BookEngine@@QAE@XZ
	??1StateList@@UAE@XZ
	??1TextureCache@BookEngine@@QAE@XZ
	??1Window@BookEngine@@QAE@XZ
	??1_Bxty@?$_String_val@U?$_Simple_types@D@std@@@std@@QAE@XZ
	??1_Container_base12@std@@QAE@XZ
	??1_Iterator_base12@std@@QAE@XZ
	??1_Sentry_base@?$basic_istream@DU?$char_traits@D@std@@@std@@QAE@XZ
	??1_Sentry_base@?$basic_ostream@DU?$char_traits@D@std@@@std@@QAE@XZ
	??1bad_cast@std@@UAE@XZ
	??1exception@std@@UAE@XZ
	??1locale@std@@QAE@XZ
	??1sentry@?$basic_istream@DU?$char_traits@D@std@@@std@@QAE@XZ
	??1sentry@?$basic_ostream@DU?$char_traits@D@std@@@std@@QAE@XZ
	??2@YAPAXIPAX@Z
	??3@YAXPAX0@Z
	??4?$_Tree_const_iterator@V?$_Tree_val@U?$_Tree_simple_types@U?$pair@$$CBV?$basic_string@DU?$char_traits@D@std@@V?$allocator@D@2@@std@@PAUMix_Chunk@@@std@@@std@@@std@@@std@@QAEAAV01@ABV01@@Z
	??4?$_Tree_const_iterator@V?$_Tree_val@U?$_Tree_simple_types@U?$pair@$$CBV?$basic_string@DU?$char_traits@D@std@@V?$allocator@D@2@@std@@PAU_Mix_Music@@@std@@@std@@@std@@@std@@QAEAAV01@ABV01@@Z
	??4?$_Tree_unchecked_const_iterator@V?$_Tree_val@U?$_Tree_simple_types@U?$pair@$$CBV?$basic_string@DU?$char_traits@D@std@@V?$allocator@D@2@@std@@PAUMix_Chunk@@@std@@@std@@@std@@U_Iterator_base12@2@@std@@QAEAAV01@ABV01@@Z
	??4?$_Tree_unchecked_const_iterator@V?$_Tree_val@U?$_Tree_simple_types@U?$pair@$$CBV?$basic_string@DU?$char_traits@D@std@@V?$allocator@D@2@@std@@PAU_Mix_Music@@@std@@@std@@@std@@U_Iterator_base12@2@@std@@QAEAAV01@ABV01@@Z
	??4?$back_insert_iterator@U?$_Temporary_range@PAVGlyph@BookEngine@@@std@@@std@@QAEAAV01@$$QAPAVGlyph@BookEngine@@@Z
	??4?$function@$$A6AXAAVParticle2D@BookEngine@@M@Z@std@@QAEAAV01@ABV01@@Z
	??4?$unique_ptr@VScreenList@BookEngine@@U?$default_delete@VScreenList@BookEngine@@@std@@@std@@QAEAAV01@$$QAV01@@Z
	??4_Iterator_base12@std@@QAEAAU01@ABU01@@Z
	??8?$_List_const_iterator@V?$_List_val@U?$_List_simple_types@U?$pair@$$CBI_N@std@@@std@@@std@@@std@@QBE_NABV01@@Z
	??8?$_List_unchecked_const_iterator@V?$_List_val@U?$_List_simple_types@U?$pair@$$CBI_N@std@@@std@@@std@@U_Iterator_base0@2@@std@@QBE_NABV01@@Z
	??8?$_Tree_const_iterator@V?$_Tree_val@U?$_Tree_simple_types@U?$pair@$$CBV?$basic_string@DU?$char_traits@D@std@@V?$allocator@D@2@@std@@PAUMix_Chunk@@@std@@@std@@@std@@@std@@QBE_NABV01@@Z
	??8?$_Tree_const_iterator@V?$_Tree_val@U?$_Tree_simple_types@U?$pair@$$CBV?$basic_string@DU?$char_traits@D@std@@V?$allocator@D@2@@std@@PAU_Mix_Music@@@std@@@std@@@std@@@std@@QBE_NABV01@@Z
	??8?$_Tree_const_iterator@V?$_Tree_val@U?$_Tree_simple_types@U?$pair@$$CBV?$basic_string@DU?$char_traits@D@std@@V?$allocator@D@2@@std@@UGLTexture@BookEngine@@@std@@@std@@@std@@@std@@QBE_NABV01@@Z
	??8?$_Tree_unchecked_const_iterator@V?$_Tree_val@U?$_Tree_simple_types@U?$pair@$$CBV?$basic_string@DU?$char_traits@D@std@@V?$allocator@D@2@@std@@PAUMix_Chunk@@@std@@@std@@@std@@U_Iterator_base0@2@@std@@QBE_NABV01@@Z
	??8?$_Tree_unchecked_const_iterator@V?$_Tree_val@U?$_Tree_simple_types@U?$pair@$$CBV?$basic_string@DU?$char_traits@D@std@@V?$allocator@D@2@@std@@PAU_Mix_Music@@@std@@@std@@@std@@U_Iterator_base0@2@@std@@QBE_NABV01@@Z
	??9?$_List_const_iterator@V?$_List_val@U?$_List_simple_types@U?$pair@$$CBI_N@std@@@std@@@std@@@std@@QBE_NABV01@@Z
	??9?$_List_unchecked_const_iterator@V?$_List_val@U?$_List_simple_types@U?$pair@$$CBI_N@std@@@std@@@std@@U_Iterator_base0@2@@std@@QBE_NABV01@@Z
	??9?$_Tree_const_iterator@V?$_Tree_val@U?$_Tree_simple_types@U?$pair@$$CBV?$basic_string@DU?$char_traits@D@std@@V?$allocator@D@2@@std@@PAUMix_Chunk@@@std@@@std@@@std@@@std@@QBE_NABV01@@Z
	??9?$_Tree_const_iterator@V?$_Tree_val@U?$_Tree_simple_types@U?$pair@$$CBV?$basic_string@DU?$char_traits@D@std@@V?$allocator@D@2@@std@@PAU_Mix_Music@@@std@@@std@@@std@@@std@@QBE_NABV01@@Z
	??9?$_Tree_const_iterator@V?$_Tree_val@U?$_Tree_simple_types@U?$pair@$$CBV?$basic_string@DU?$char_traits@D@std@@V?$allocator@D@2@@std@@UGLTexture@BookEngine@@@std@@@std@@@std@@@std@@QBE_NABV01@@Z
	??9?$_Tree_unchecked_const_iterator@V?$_Tree_val@U?$_Tree_simple_types@U?$pair@$$CBV?$basic_string@DU?$char_traits@D@std@@V?$allocator@D@2@@std@@PAUMix_Chunk@@@std@@@std@@@std@@U_Iterator_base0@2@@std@@QBE_NABV01@@Z
	??9?$_Tree_unchecked_const_iterator@V?$_Tree_val@U?$_Tree_simple_types@U?$pair@$$CBV?$basic_string@DU?$char_traits@D@std@@V?$allocator@D@2@@std@@PAU_Mix_Music@@@std@@@std@@@std@@U_Iterator_base0@2@@std@@QBE_NABV01@@Z
	??A?$map@V?$basic_string@DU?$char_traits@D@std@@V?$allocator@D@2@@std@@PAUMix_Chunk@@U?$less@V?$basic_string@DU?$char_traits@D@std@@V?$allocator@D@2@@std@@@2@V?$allocator@U?$pair@$$CBV?$basic_string@DU?$char_traits@D@std@@V?$allocator@D@2@@std@@PAUMix_Chunk@@@std@@@2@@std@@QAEAAPAUMix_Chunk@@ABV?$basic_string@DU?$char_traits@D@std@@V?$allocator@D@2@@1@@Z
	??A?$map@V?$basic_string@DU?$char_traits@D@std@@V?$allocator@D@2@@std@@PAU_Mix_Music@@U?$less@V?$basic_string@DU?$char_traits@D@std@@V?$allocator@D@2@@std@@@2@V?$allocator@U?$pair@$$CBV?$basic_string@DU?$char_traits@D@std@@V?$allocator@D@2@@std@@PAU_Mix_Music@@@std@@@2@@std@@QAEAAPAU_Mix_Music@@ABV?$basic_string@DU?$char_traits@D@std@@V?$allocator@D@2@@1@@Z
	??A?$tmat4x4@M$0A@@glm@@QAEAAU?$tvec4@M$0A@@1@H@Z
	??A?$tmat4x4@M$0A@@glm@@QBEABU?$tvec4@M$0A@@1@H@Z
	??A?$tvec3@M$0A@@glm@@QBEABMH@Z
	??A?$tvec4@M$0A@@glm@@QAEAAMH@Z
	??A?$tvec4@M$0A@@glm@@QBEABMH@Z
	??A?$unordered_map@I_NU?$hash@I@std@@U?$equal_to@I@2@V?$allocator@U?$pair@$$CBI_N@std@@@2@@std@@QAEAA_NABI@Z
	??A?$vector@DV?$allocator@D@std@@@std@@QAEAADI@Z
	??A?$vector@EV?$allocator@E@std@@@std@@QAEAAEI@Z
	??A?$vector@EV?$allocator@E@std@@@std@@QBEABEI@Z
	??A?$vector@HV?$allocator@H@std@@@std@@QAEAAHI@Z
	??A?$vector@IV?$allocator@I@std@@@std@@QAEAAII@Z
	??A?$vector@KV?$allocator@K@std@@@std@@QAEAAKI@Z
	??A?$vector@KV?$allocator@K@std@@@std@@QBEABKI@Z
	??A?$vector@PAVGlyph@BookEngine@@V?$allocator@PAVGlyph@BookEngine@@@std@@@std@@QAEAAPAVGlyph@BookEngine@@I@Z
	??A?$vector@PAVIScreen@BookEngine@@V?$allocator@PAVIScreen@BookEngine@@@std@@@std@@QAEAAPAVIScreen@BookEngine@@I@Z
	??A?$vector@U?$tvec2@M$0A@@glm@@V?$allocator@U?$tvec2@M$0A@@glm@@@std@@@std@@QAEAAU?$tvec2@M$0A@@glm@@I@Z
	??A?$vector@U?$tvec3@M$0A@@glm@@V?$allocator@U?$tvec3@M$0A@@glm@@@std@@@std@@QAEAAU?$tvec3@M$0A@@glm@@I@Z
	??A?$vector@U?$tvec4@M$0A@@glm@@V?$allocator@U?$tvec4@M$0A@@glm@@@std@@@std@@QBEABU?$tvec4@M$0A@@glm@@I@Z
	??A?$vector@UVertex2D@BookEngine@@V?$allocator@UVertex2D@BookEngine@@@std@@@std@@QAEAAUVertex2D@BookEngine@@I@Z
	??A?$vector@V?$_List_unchecked_iterator@V?$_List_val@U?$_List_simple_types@U?$pair@$$CBI_N@std@@@std@@@std@@@std@@V?$allocator@V?$_List_unchecked_iterator@V?$_List_val@U?$_List_simple_types@U?$pair@$$CBI_N@std@@@std@@@std@@@std@@@2@@std@@QAEAAV?$_List_unchecked_iterator@V?$_List_val@U?$_List_simple_types@U?$pair@$$CBI_N@std@@@std@@@std@@@1@I@Z
	??A?$vector@VBatchRenderr@BookEngine@@V?$allocator@VBatchRenderr@BookEngine@@@std@@@std@@QAEAAVBatchRenderr@BookEngine@@I@Z
	??A?$vector@VGlyph@BookEngine@@V?$allocator@VGlyph@BookEngine@@@std@@@std@@QAEAAVGlyph@BookEngine@@I@Z
	??B?$fpos@U_Mbstatet@@@std@@QBE_JXZ
	??B?$unique_ptr@VScreenList@BookEngine@@U?$default_delete@VScreenList@BookEngine@@@std@@@std@@QBE_NXZ
	??Bsentry@?$basic_istream@DU?$char_traits@D@std@@@std@@QBE_NXZ
	??Bsentry@?$basic_ostream@DU?$char_traits@D@std@@@std@@QBE_NXZ
	??C?$_List_iterator@V?$_List_val@U?$_List_simple_types@U?$pair@$$CBI_N@std@@@std@@@std@@@std@@QBEPAU?$pair@$$CBI_N@1@XZ
	??C?$_Tree_iterator@V?$_Tree_val@U?$_Tree_simple_types@U?$pair@$$CBV?$basic_string@DU?$char_traits@D@std@@V?$allocator@D@2@@std@@PAUMix_Chunk@@@std@@@std@@@std@@@std@@QBEPAU?$pair@$$CBV?$basic_string@DU?$char_traits@D@std@@V?$allocator@D@2@@std@@PAUMix_Chunk@@@1@XZ
	??C?$_Tree_iterator@V?$_Tree_val@U?$_Tree_simple_types@U?$pair@$$CBV?$basic_string@DU?$char_traits@D@std@@V?$allocator@D@2@@std@@PAU_Mix_Music@@@std@@@std@@@std@@@std@@QBEPAU?$pair@$$CBV?$basic_string@DU?$char_traits@D@std@@V?$allocator@D@2@@std@@PAU_Mix_Music@@@1@XZ
	??C?$_Tree_iterator@V?$_Tree_val@U?$_Tree_simple_types@U?$pair@$$CBV?$basic_string@DU?$char_traits@D@std@@V?$allocator@D@2@@std@@UGLTexture@BookEngine@@@std@@@std@@@std@@@std@@QBEPAU?$pair@$$CBV?$basic_string@DU?$char_traits@D@std@@V?$allocator@D@2@@std@@UGLTexture@BookEngine@@@1@XZ
	??C?$unique_ptr@VScreenList@BookEngine@@U?$default_delete@VScreenList@BookEngine@@@std@@@std@@QBEPAVScreenList@BookEngine@@XZ
	??D?$_List_const_iterator@V?$_List_val@U?$_List_simple_types@U?$pair@$$CBI_N@std@@@std@@@std@@@std@@QBEABU?$pair@$$CBI_N@1@XZ
	??D?$_List_iterator@V?$_List_val@U?$_List_simple_types@U?$pair@$$CBI_N@std@@@std@@@std@@@std@@QBEAAU?$pair@$$CBI_N@1@XZ
	??D?$_List_unchecked_const_iterator@V?$_List_val@U?$_List_simple_types@U?$pair@$$CBI_N@std@@@std@@@std@@U_Iterator_base0@2@@std@@QBEABU?$pair@$$CBI_N@1@XZ
	??D?$_List_unchecked_iterator@V?$_List_val@U?$_List_simple_types@U?$pair@$$CBI_N@std@@@std@@@std@@@std@@QBEAAU?$pair@$$CBI_N@1@XZ
	??D?$_String_const_iterator@V?$_String_val@U?$_Simple_types@D@std@@@std@@@std@@QBEABDXZ
	??D?$_String_iterator@V?$_String_val@U?$_Simple_types@D@std@@@std@@@std@@QBEAADXZ
	??D?$_Tree_const_iterator@V?$_Tree_val@U?$_Tree_simple_types@U?$pair@$$CBV?$basic_string@DU?$char_traits@D@std@@V?$allocator@D@2@@std@@PAUMix_Chunk@@@std@@@std@@@std@@@std@@QBEABU?$pair@$$CBV?$basic_string@DU?$char_traits@D@std@@V?$allocator@D@2@@std@@PAUMix_Chunk@@@1@XZ
	??D?$_Tree_const_iterator@V?$_Tree_val@U?$_Tree_simple_types@U?$pair@$$CBV?$basic_string@DU?$char_traits@D@std@@V?$allocator@D@2@@std@@PAU_Mix_Music@@@std@@@std@@@std@@@std@@QBEABU?$pair@$$CBV?$basic_string@DU?$char_traits@D@std@@V?$allocator@D@2@@std@@PAU_Mix_Music@@@1@XZ
	??D?$_Tree_const_iterator@V?$_Tree_val@U?$_Tree_simple_types@U?$pair@$$CBV?$basic_string@DU?$char_traits@D@std@@V?$allocator@D@2@@std@@UGLTexture@BookEngine@@@std@@@std@@@std@@@std@@QBEABU?$pair@$$CBV?$basic_string@DU?$char_traits@D@std@@V?$allocator@D@2@@std@@UGLTexture@BookEngine@@@1@XZ
	??D?$_Tree_iterator@V?$_Tree_val@U?$_Tree_simple_types@U?$pair@$$CBV?$basic_string@DU?$char_traits@D@std@@V?$allocator@D@2@@std@@PAUMix_Chunk@@@std@@@std@@@std@@@std@@QBEAAU?$pair@$$CBV?$basic_string@DU?$char_traits@D@std@@V?$allocator@D@2@@std@@PAUMix_Chunk@@@1@XZ
	??D?$_Tree_iterator@V?$_Tree_val@U?$_Tree_simple_types@U?$pair@$$CBV?$basic_string@DU?$char_traits@D@std@@V?$allocator@D@2@@std@@PAU_Mix_Music@@@std@@@std@@@std@@@std@@QBEAAU?$pair@$$CBV?$basic_string@DU?$char_traits@D@std@@V?$allocator@D@2@@std@@PAU_Mix_Music@@@1@XZ
	??D?$_Tree_iterator@V?$_Tree_val@U?$_Tree_simple_types@U?$pair@$$CBV?$basic_string@DU?$char_traits@D@std@@V?$allocator@D@2@@std@@UGLTexture@BookEngine@@@std@@@std@@@std@@@std@@QBEAAU?$pair@$$CBV?$basic_string@DU?$char_traits@D@std@@V?$allocator@D@2@@std@@UGLTexture@BookEngine@@@1@XZ
	??D?$_Tree_unchecked_const_iterator@V?$_Tree_val@U?$_Tree_simple_types@U?$pair@$$CBV?$basic_string@DU?$char_traits@D@std@@V?$allocator@D@2@@std@@PAUMix_Chunk@@@std@@@std@@@std@@U_Iterator_base0@2@@std@@QBEABU?$pair@$$CBV?$basic_string@DU?$char_traits@D@std@@V?$allocator@D@2@@std@@PAUMix_Chunk@@@1@XZ
	??D?$_Tree_unchecked_const_iterator@V?$_Tree_val@U?$_Tree_simple_types@U?$pair@$$CBV?$basic_string@DU?$char_traits@D@std@@V?$allocator@D@2@@std@@PAU_Mix_Music@@@std@@@std@@@std@@U_Iterator_base0@2@@std@@QBEABU?$pair@$$CBV?$basic_string@DU?$char_traits@D@std@@V?$allocator@D@2@@std@@PAU_Mix_Music@@@1@XZ
	??D?$_Tree_unchecked_iterator@V?$_Tree_val@U?$_Tree_simple_types@U?$pair@$$CBV?$basic_string@DU?$char_traits@D@std@@V?$allocator@D@2@@std@@PAUMix_Chunk@@@std@@@std@@@std@@@std@@QBEAAU?$pair@$$CBV?$basic_string@DU?$char_traits@D@std@@V?$allocator@D@2@@std@@PAUMix_Chunk@@@1@XZ
	??D?$_Tree_unchecked_iterator@V?$_Tree_val@U?$_Tree_simple_types@U?$pair@$$CBV?$basic_string@DU?$char_traits@D@std@@V?$allocator@D@2@@std@@PAU_Mix_Music@@@std@@@std@@@std@@@std@@QBEAAU?$pair@$$CBV?$basic_string@DU?$char_traits@D@std@@V?$allocator@D@2@@std@@PAU_Mix_Music@@@1@XZ
	??D?$back_insert_iterator@U?$_Temporary_range@PAVGlyph@BookEngine@@@std@@@std@@QAEAAV01@XZ
	??E?$_List_const_iterator@V?$_List_val@U?$_List_simple_types@U?$pair@$$CBI_N@std@@@std@@@std@@@std@@QAE?AV01@H@Z
	??E?$_List_const_iterator@V?$_List_val@U?$_List_simple_types@U?$pair@$$CBI_N@std@@@std@@@std@@@std@@QAEAAV01@XZ
	??E?$_List_unchecked_const_iterator@V?$_List_val@U?$_List_simple_types@U?$pair@$$CBI_N@std@@@std@@@std@@U_Iterator_base0@2@@std@@QAEAAV01@XZ
	??E?$_List_unchecked_iterator@V?$_List_val@U?$_List_simple_types@U?$pair@$$CBI_N@std@@@std@@@std@@@std@@QAEAAV01@XZ
	??E?$_Tree_const_iterator@V?$_Tree_val@U?$_Tree_simple_types@U?$pair@$$CBV?$basic_string@DU?$char_traits@D@std@@V?$allocator@D@2@@std@@PAUMix_Chunk@@@std@@@std@@@std@@@std@@QAE?AV01@H@Z
	??E?$_Tree_const_iterator@V?$_Tree_val@U?$_Tree_simple_types@U?$pair@$$CBV?$basic_string@DU?$char_traits@D@std@@V?$allocator@D@2@@std@@PAUMix_Chunk@@@std@@@std@@@std@@@std@@QAEAAV01@XZ
	??E?$_Tree_const_iterator@V?$_Tree_val@U?$_Tree_simple_types@U?$pair@$$CBV?$basic_string@DU?$char_traits@D@std@@V?$allocator@D@2@@std@@PAU_Mix_Music@@@std@@@std@@@std@@@std@@QAE?AV01@H@Z
	??E?$_Tree_const_iterator@V?$_Tree_val@U?$_Tree_simple_types@U?$pair@$$CBV?$basic_string@DU?$char_traits@D@std@@V?$allocator@D@2@@std@@PAU_Mix_Music@@@std@@@std@@@std@@@std@@QAEAAV01@XZ
	??E?$_Tree_const_iterator@V?$_Tree_val@U?$_Tree_simple_types@U?$pair@$$CBV?$basic_string@DU?$char_traits@D@std@@V?$allocator@D@2@@std@@UGLTexture@BookEngine@@@std@@@std@@@std@@@std@@QAE?AV01@H@Z
	??E?$_Tree_const_iterator@V?$_Tree_val@U?$_Tree_simple_types@U?$pair@$$CBV?$basic_string@DU?$char_traits@D@std@@V?$allocator@D@2@@std@@UGLTexture@BookEngine@@@std@@@std@@@std@@@std@@QAEAAV01@XZ
	??E?$_Tree_unchecked_const_iterator@V?$_Tree_val@U?$_Tree_simple_types@U?$pair@$$CBV?$basic_string@DU?$char_traits@D@std@@V?$allocator@D@2@@std@@PAUMix_Chunk@@@std@@@std@@@std@@U_Iterator_base0@2@@std@@QAEAAV01@XZ
	??E?$_Tree_unchecked_const_iterator@V?$_Tree_val@U?$_Tree_simple_types@U?$pair@$$CBV?$basic_string@DU?$char_traits@D@std@@V?$allocator@D@2@@std@@PAUMix_Chunk@@@std@@@std@@@std@@U_Iterator_base12@2@@std@@QAEAAV01@XZ
	??E?$_Tree_unchecked_const_iterator@V?$_Tree_val@U?$_Tree_simple_types@U?$pair@$$CBV?$basic_string@DU?$char_traits@D@std@@V?$allocator@D@2@@std@@PAU_Mix_Music@@@std@@@std@@@std@@U_Iterator_base0@2@@std@@QAEAAV01@XZ
	??E?$_Tree_unchecked_const_iterator@V?$_Tree_val@U?$_Tree_simple_types@U?$pair@$$CBV?$basic_string@DU?$char_traits@D@std@@V?$allocator@D@2@@std@@PAU_Mix_Music@@@std@@@std@@@std@@U_Iterator_base12@2@@std@@QAEAAV01@XZ
	??E?$_Tree_unchecked_const_iterator@V?$_Tree_val@U?$_Tree_simple_types@U?$pair@$$CBV?$basic_string@DU?$char_traits@D@std@@V?$allocator@D@2@@std@@UGLTexture@BookEngine@@@std@@@std@@@std@@U_Iterator_base12@2@@std@@QAEAAV01@XZ
	??E?$_Tree_unchecked_iterator@V?$_Tree_val@U?$_Tree_simple_types@U?$pair@$$CBV?$basic_string@DU?$char_traits@D@std@@V?$allocator@D@2@@std@@PAUMix_Chunk@@@std@@@std@@@std@@@std@@QAEAAV01@XZ
	??E?$_Tree_unchecked_iterator@V?$_Tree_val@U?$_Tree_simple_types@U?$pair@$$CBV?$basic_string@DU?$char_traits@D@std@@V?$allocator@D@2@@std@@PAU_Mix_Music@@@std@@@std@@@std@@@std@@QAEAAV01@XZ
	??E?$back_insert_iterator@U?$_Temporary_range@PAVGlyph@BookEngine@@@std@@@std@@QAEAAV01@XZ
	??F?$_List_unchecked_const_iterator@V?$_List_val@U?$_List_simple_types@U?$pair@$$CBI_N@std@@@std@@@std@@U_Iterator_base0@2@@std@@QAEAAV01@XZ
	??F?$_List_unchecked_iterator@V?$_List_val@U?$_List_simple_types@U?$pair@$$CBI_N@std@@@std@@@std@@@std@@QAEAAV01@XZ
	??F?$_Tree_const_iterator@V?$_Tree_val@U?$_Tree_simple_types@U?$pair@$$CBV?$basic_string@DU?$char_traits@D@std@@V?$allocator@D@2@@std@@PAUMix_Chunk@@@std@@@std@@@std@@@std@@QAEAAV01@XZ
	??F?$_Tree_const_iterator@V?$_Tree_val@U?$_Tree_simple_types@U?$pair@$$CBV?$basic_string@DU?$char_traits@D@std@@V?$allocator@D@2@@std@@PAU_Mix_Music@@@std@@@std@@@std@@@std@@QAEAAV01@XZ
	??F?$_Tree_const_iterator@V?$_Tree_val@U?$_Tree_simple_types@U?$pair@$$CBV?$basic_string@DU?$char_traits@D@std@@V?$allocator@D@2@@std@@UGLTexture@BookEngine@@@std@@@std@@@std@@@std@@QAEAAV01@XZ
	??F?$_Tree_iterator@V?$_Tree_val@U?$_Tree_simple_types@U?$pair@$$CBV?$basic_string@DU?$char_traits@D@std@@V?$allocator@D@2@@std@@PAUMix_Chunk@@@std@@@std@@@std@@@std@@QAEAAV01@XZ
	??F?$_Tree_iterator@V?$_Tree_val@U?$_Tree_simple_types@U?$pair@$$CBV?$basic_string@DU?$char_traits@D@std@@V?$allocator@D@2@@std@@PAU_Mix_Music@@@std@@@std@@@std@@@std@@QAEAAV01@XZ
	??F?$_Tree_iterator@V?$_Tree_val@U?$_Tree_simple_types@U?$pair@$$CBV?$basic_string@DU?$char_traits@D@std@@V?$allocator@D@2@@std@@UGLTexture@BookEngine@@@std@@@std@@@std@@@std@@QAEAAV01@XZ
	??F?$_Tree_unchecked_const_iterator@V?$_Tree_val@U?$_Tree_simple_types@U?$pair@$$CBV?$basic_string@DU?$char_traits@D@std@@V?$allocator@D@2@@std@@PAUMix_Chunk@@@std@@@std@@@std@@U_Iterator_base12@2@@std@@QAEAAV01@XZ
	??F?$_Tree_unchecked_const_iterator@V?$_Tree_val@U?$_Tree_simple_types@U?$pair@$$CBV?$basic_string@DU?$char_traits@D@std@@V?$allocator@D@2@@std@@PAU_Mix_Music@@@std@@@std@@@std@@U_Iterator_base12@2@@std@@QAEAAV01@XZ
	??F?$_Tree_unchecked_const_iterator@V?$_Tree_val@U?$_Tree_simple_types@U?$pair@$$CBV?$basic_string@DU?$char_traits@D@std@@V?$allocator@D@2@@std@@UGLTexture@BookEngine@@@std@@@std@@@std@@U_Iterator_base12@2@@std@@QAEAAV01@XZ
	??H?$_Vector_iterator@V?$_Vector_val@U?$_Simple_types@E@std@@@std@@@std@@QBE?AV01@H@Z
	??M?$_Vector_const_iterator@V?$_Vector_val@U?$_Simple_types@PAVGlyph@BookEngine@@@std@@@std@@@std@@QBE_NABV01@@Z
	??R?$_Conditionally_enabled_hash@I$00@std@@QBEIABI@Z
	??R?$_Func_class@XAAVParticle2D@BookEngine@@M@std@@QBEXAAVParticle2D@BookEngine@@M@Z
	??R?$_Uhash_compare@IU?$hash@I@std@@U?$equal_to@I@2@@std@@QBEIABI@Z
	??R?$_Uhash_compare@IU?$hash@I@std@@U?$equal_to@I@2@@std@@QBE_NABI0@Z
	??R?$default_delete@VScreenList@BookEngine@@@std@@QBEXPAVScreenList@BookEngine@@@Z
	??R?$equal_to@I@std@@QBE_NABI0@Z
	??R?$less@V?$basic_string@DU?$char_traits@D@std@@V?$allocator@D@2@@std@@@std@@QBE_NABV?$basic_string@DU?$char_traits@D@std@@V?$allocator@D@2@@1@0@Z
	??Y?$_Vector_const_iterator@V?$_Vector_val@U?$_Simple_types@E@std@@@std@@@std@@QAEAAV01@H@Z
	??Y?$_Vector_iterator@V?$_Vector_val@U?$_Simple_types@E@std@@@std@@@std@@QAEAAV01@H@Z
	??Y?$basic_string@DU?$char_traits@D@std@@V?$allocator@D@2@@std@@QAEAAV01@ABV01@@Z
	??Y?$basic_string@DU?$char_traits@D@std@@V?$allocator@D@2@@std@@QAEAAV01@D@Z
	??Y?$basic_string@DU?$char_traits@D@std@@V?$allocator@D@2@@std@@QAEAAV01@QBD@Z
	??_D?$basic_ifstream@DU?$char_traits@D@std@@@std@@QAEXXZ
	??_D?$basic_istringstream@DU?$char_traits@D@std@@V?$allocator@D@2@@std@@QAEXXZ
	??_D?$basic_ofstream@DU?$char_traits@D@std@@@std@@QAEXXZ
	??_D?$basic_stringstream@DU?$char_traits@D@std@@V?$allocator@D@2@@std@@QAEXXZ
	??_H@YGXPAXIIP6EPAX0@Z@Z
	?AddAttribute@ShaderManager@BookEngine@@QAEXABV?$basic_string@DU?$char_traits@D@std@@V?$allocator@D@2@@std@@@Z
	?AddFrame@Animation@BookEngine@@QAEXU?$tvec4@M$0A@@glm@@@Z
	?AddParticle@ParticleBatch2D@BookEngine@@QAEXABU?$tvec2@M$0A@@glm@@0ABUColorRGBA8@2@M@Z
	?AddScreen@ScreenList@BookEngine@@QAEXPAVIScreen@2@@Z
	?BatchRender@SpriteBatch@BookEngine@@QAEXXZ
	?Begin@FpsLimiter@BookEngine@@QAEXXZ
	?Begin@SpriteBatch@BookEngine@@QAEXW4GlyphSortType@2@@Z
	?CalculateFPS@FpsLimiter@BookEngine@@AAEXXZ
	?CompareBackToFront@SpriteBatch@BookEngine@@CA_NPAVGlyph@2@0@Z
	?CompareFrontToBack@SpriteBatch@BookEngine@@CA_NPAVGlyph@2@0@Z
	?CompareTexture@SpriteBatch@BookEngine@@CA_NPAVGlyph@2@0@Z
	?CompileShader@ShaderManager@BookEngine@@AAEXABV?$basic_string@DU?$char_traits@D@std@@V?$allocator@D@2@@std@@I@Z
	?CompileShaders@ShaderManager@BookEngine@@QAEXABV?$basic_string@DU?$char_traits@D@std@@V?$allocator@D@2@@std@@0@Z
	?ConvertScreenToWorld@Camera2D@BookEngine@@QAE?AU?$tvec2@M$0A@@glm@@U34@@Z
	?Create@Window@BookEngine@@QAEHV?$basic_string@DU?$char_traits@D@std@@V?$allocator@D@2@@std@@HHI@Z
	?CreateParticleBatch@ParticleManager2D@BookEngine@@QAEXPAVParticleBatch2D@2@@Z
	?CreateRenderBatches@SpriteBatch@BookEngine@@AAEXXZ
	?CreateVertexArray@SpriteBatch@BookEngine@@AAEXXZ
	?DecodePNG@BookEngine@@YAHAAV?$vector@EV?$allocator@E@std@@@std@@AAK1PBEI_N@Z
	?Destroy@AudioManager@BookEngine@@QAEXXZ
	?Destroy@ScreenList@BookEngine@@QAEXXZ
	?Draw@AnimatedSprite@BookEngine@@QBEXAAVSpriteBatch@2@U?$tvec2@M$0A@@glm@@@Z
	?Draw@IGame@BookEngine@@MAEXXZ
	?Draw@Mesh@BookEngine@@QAEXXZ
	?Draw@ParticleBatch2D@BookEngine@@QAEXPAVSpriteBatch@2@@Z
	?Draw@ParticleManager2D@BookEngine@@QAEXPAVSpriteBatch@2@@Z
	?Draw@Sprite@BookEngine@@QAEXXZ
	?Draw@SpriteBatch@BookEngine@@QAEXABU?$tvec4@M$0A@@glm@@0IMABUColorRGBA8@2@@Z
	?Draw@SpriteBatch@BookEngine@@QAEXABU?$tvec4@M$0A@@glm@@0IMABUColorRGBA8@2@ABU?$tvec2@M$0A@@4@@Z
	?Draw@SpriteBatch@BookEngine@@QAEXABU?$tvec4@M$0A@@glm@@0IMABUColorRGBA8@2@M@Z
	?Draw@SpriteFont@BookEngine@@QAEXAAVSpriteBatch@2@PBDU?$tvec2@M$0A@@glm@@2MUColorRGBA8@2@W4Justification@2@@Z
	?End@FpsLimiter@BookEngine@@QAEMXZ
	?End@SpriteBatch@BookEngine@@QAEXXZ
	?Exit@IGame@BookEngine@@QAEXXZ
	?FindFreeParticle@ParticleBatch2D@BookEngine@@AAEHXZ
	?GetAnimation@AnimatedSprite@BookEngine@@QBEPBVAnimation@2@XZ
	?GetCurrent@ScreenList@BookEngine@@QAEPAVIScreen@2@XZ
	?GetFrame@Animation@BookEngine@@QBE?BU?$tvec4@M$0A@@glm@@I@Z
	?GetFrameTime@AnimatedSprite@BookEngine@@QBEMXZ
	?GetLocalBounds@AnimatedSprite@BookEngine@@QBE?AU?$tvec4@M$0A@@glm@@XZ
	?GetScreenHeight@Window@BookEngine@@QAEHXZ
	?GetScreenWidth@Window@BookEngine@@QAEHXZ
	?GetSize@Animation@BookEngine@@QBEIXZ
	?GetSpriteSheet@Animation@BookEngine@@QBEPBUGLTexture@2@XZ
	?GetState@IScreen@BookEngine@@QBE?AW4ScreenState@2@XZ
	?GetTexture@ResourceManager@BookEngine@@SA?AUGLTexture@2@V?$basic_string@DU?$char_traits@D@std@@V?$allocator@D@2@@std@@@Z
	?GetTexture@TextureCache@BookEngine@@QAE?AUGLTexture@2@V?$basic_string@DU?$char_traits@D@std@@V?$allocator@D@2@@std@@@Z
	?GetUniformLocation@ShaderManager@BookEngine@@QAEHABV?$basic_string@DU?$char_traits@D@std@@V?$allocator@D@2@@std@@@Z
	?InView@Camera2D@BookEngine@@QAE_NABU?$tvec2@M$0A@@glm@@0@Z
	?Init@AudioManager@BookEngine@@QAEXXZ
	?Init@BookEngine@@YAHXZ
	?Init@Camera2D@BookEngine@@QAEXHH@Z
	?Init@Camera3D@BookEngine@@QAEXU?$tvec3@M$0A@@glm@@MMM@Z
	?Init@FpsLimiter@BookEngine@@QAEXM@Z
	?Init@IGame@BookEngine@@IAE_NXZ
	?Init@Mesh@BookEngine@@QAEXV?$basic_string@DU?$char_traits@D@std@@V?$allocator@D@2@@std@@0@Z
	?Init@ParticleBatch2D@BookEngine@@QAEXHMUGLTexture@2@V?$function@$$A6AXAAVParticle2D@BookEngine@@M@Z@std@@@Z
	?Init@Sprite@BookEngine@@QAEXMMMMV?$basic_string@DU?$char_traits@D@std@@V?$allocator@D@2@@std@@@Z
	?Init@SpriteBatch@BookEngine@@QAEXXZ
	?InitSystems@IGame@BookEngine@@IAE_NXZ
	?KeyPress@InputManager@BookEngine@@QAEXI@Z
	?KeyRelease@InputManager@BookEngine@@QAEXI@Z
	?LinkShaders@ShaderManager@BookEngine@@QAEXXZ
	?LoadDDS@ImageLoader@BookEngine@@SA?AUGLTexture@2@PBD@Z
	?LoadMusic@AudioManager@BookEngine@@QAE?AVMusic@2@ABV?$basic_string@DU?$char_traits@D@std@@V?$allocator@D@2@@std@@@Z
	?LoadOBJ@BookEngine@@YA_NV?$basic_string@DU?$char_traits@D@std@@V?$allocator@D@2@@std@@AAV?$vector@U?$tvec3@M$0A@@glm@@V?$allocator@U?$tvec3@M$0A@@glm@@@std@@@3@AAV?$vector@U?$tvec2@M$0A@@glm@@V?$allocator@U?$tvec2@M$0A@@glm@@@std@@@3@1@Z
	?LoadPNG@ImageLoader@BookEngine@@SA?AUGLTexture@2@V?$basic_string@DU?$char_traits@D@std@@V?$allocator@D@2@@std@@@Z
	?LoadSoundEffect@AudioManager@BookEngine@@QAE?AVSoundEffect@2@ABV?$basic_string@DU?$char_traits@D@std@@V?$allocator@D@2@@std@@@Z
	?MoveNext@ScreenList@BookEngine@@QAEPAVIScreen@2@XZ
	?MovePrevious@ScreenList@BookEngine@@QAEPAVIScreen@2@XZ
	?OnSDLEvent@IGame@BookEngine@@QAEXAATSDL_Event@@@Z
	?OnWindowEvent@Window@BookEngine@@QAEXAATSDL_Event@@@Z
	?Pause@AnimatedSprite@BookEngine@@QAEXXZ
	?Play@AnimatedSprite@BookEngine@@QAEXABVAnimation@2@@Z
	?Play@AnimatedSprite@BookEngine@@QAEXXZ
	?Play@Music@BookEngine@@QAEXH@Z
	?Play@SoundEffect@BookEngine@@QAEXH@Z
	?ReadFileToBuffer@IOManager@BookEngine@@SA_NV?$basic_string@DU?$char_traits@D@std@@V?$allocator@D@2@@std@@AAV?$vector@EV?$allocator@E@std@@@4@@Z
	?RotatePoint@Glyph@BookEngine@@AAE?AU?$tvec2@M$0A@@glm@@ABU34@M@Z
	?Run@IGame@BookEngine@@QAEXXZ
	?SetAnimation@AnimatedSprite@BookEngine@@QAEXABVAnimation@2@@Z
	?SetColor@Vertex2D@BookEngine@@QAEXEEEE@Z
	?SetCurrentScreen@ScreenList@BookEngine@@QAEXH@Z
	?SetFrameTime@AnimatedSprite@BookEngine@@QAEXM@Z
	?SetLooped@AnimatedSprite@BookEngine@@QAEX_N@Z
	?SetMaxFPS@FpsLimiter@BookEngine@@QAEXM@Z
	?SetMouseCoords@InputManager@BookEngine@@QAEXMM@Z
	?SetParentGame@IScreen@BookEngine@@QAEXPAVIGame@2@@Z
	?SetPosition@Vertex2D@BookEngine@@QAEXMM@Z
	?SetRunning@IScreen@BookEngine@@QAEXXZ
	?SetSpriteSheet@Animation@BookEngine@@QAEXABUGLTexture@2@@Z
	?SetUV@Vertex2D@BookEngine@@QAEXMM@Z
	?SetWindowName@Window@BookEngine@@QAEXAAV?$basic_string@DU?$char_traits@D@std@@V?$allocator@D@2@@std@@@Z
	?SortGlyphs@SpriteBatch@BookEngine@@AAEXXZ
	?Stop@AnimatedSprite@BookEngine@@QAEXXZ
	?SwapBuffer@Window@BookEngine@@QAEXXZ
	?ToggleFullScreen@Window@BookEngine@@QAEXXZ
	?UnUse@ShaderManager@BookEngine@@QAEXXZ
	?Update@AnimatedSprite@BookEngine@@QAEXXZ
	?Update@Camera2D@BookEngine@@QAEXXZ
	?Update@Camera3D@BookEngine@@QAEXXZ
	?Update@IGame@BookEngine@@MAEXXZ
	?Update@InputManager@BookEngine@@QAEXXZ
	?Update@ParticleBatch2D@BookEngine@@QAEXM@Z
	?Update@ParticleManager2D@BookEngine@@QAEXM@Z
	?Use@ShaderManager@BookEngine@@QAEXXZ
	?WriteLog@BookEngine@@YAXW4LogType@1@ABV?$basic_string@DU?$char_traits@D@std@@V?$allocator@D@2@@std@@@Z
	?_Adopt@_Iterator_base0@std@@QAEXPBX@Z
	?_Adopt@_Iterator_base12@std@@QAEXPBU_Container_base12@2@@Z
	?_Alloc_proxy@?$_List_alloc@U?$_List_base_types@U?$pair@$$CBI_N@std@@V?$allocator@U?$pair@$$CBI_N@std@@@2@@std@@@std@@QAEXXZ
	?_Alloc_proxy@?$_String_alloc@U?$_String_base_types@DV?$allocator@D@std@@@std@@@std@@QAEXXZ
	?_Alloc_proxy@?$_Tree_comp_alloc@V?$_Tmap_traits@V?$basic_string@DU?$char_traits@D@std@@V?$allocator@D@2@@std@@PAUMix_Chunk@@U?$less@V?$basic_string@DU?$char_traits@D@std@@V?$allocator@D@2@@std@@@2@V?$allocator@U?$pair@$$CBV?$basic_string@DU?$char_traits@D@std@@V?$allocator@D@2@@std@@PAUMix_Chunk@@@std@@@2@$0A@@std@@@std@@QAEXXZ
	?_Alloc_proxy@?$_Tree_comp_alloc@V?$_Tmap_traits@V?$basic_string@DU?$char_traits@D@std@@V?$allocator@D@2@@std@@PAU_Mix_Music@@U?$less@V?$basic_string@DU?$char_traits@D@std@@V?$allocator@D@2@@std@@@2@V?$allocator@U?$pair@$$CBV?$basic_string@DU?$char_traits@D@std@@V?$allocator@D@2@@std@@PAU_Mix_Music@@@std@@@2@$0A@@std@@@std@@QAEXXZ
	?_Alloc_proxy@?$_Tree_comp_alloc@V?$_Tmap_traits@V?$basic_string@DU?$char_traits@D@std@@V?$allocator@D@2@@std@@UGLTexture@BookEngine@@U?$less@V?$basic_string@DU?$char_traits@D@std@@V?$allocator@D@2@@std@@@2@V?$allocator@U?$pair@$$CBV?$basic_string@DU?$char_traits@D@std@@V?$allocator@D@2@@std@@UGLTexture@BookEngine@@@std@@@2@$0A@@std@@@std@@QAEXXZ
	?_Alloc_proxy@?$_Vector_alloc@U?$_Vec_base_types@DV?$allocator@D@std@@@std@@@std@@QAEXXZ
	?_Alloc_proxy@?$_Vector_alloc@U?$_Vec_base_types@EV?$allocator@E@std@@@std@@@std@@QAEXXZ
	?_Alloc_proxy@?$_Vector_alloc@U?$_Vec_base_types@HV?$allocator@H@std@@@std@@@std@@QAEXXZ
	?_Alloc_proxy@?$_Vector_alloc@U?$_Vec_base_types@IV?$allocator@I@std@@@std@@@std@@QAEXXZ
	?_Alloc_proxy@?$_Vector_alloc@U?$_Vec_base_types@KV?$allocator@K@std@@@std@@@std@@QAEXXZ
	?_Alloc_proxy@?$_Vector_alloc@U?$_Vec_base_types@PAVGlyph@BookEngine@@V?$allocator@PAVGlyph@BookEngine@@@std@@@std@@@std@@QAEXXZ
	?_Alloc_proxy@?$_Vector_alloc@U?$_Vec_base_types@PAVIScreen@BookEngine@@V?$allocator@PAVIScreen@BookEngine@@@std@@@std@@@std@@QAEXXZ
	?_Alloc_proxy@?$_Vector_alloc@U?$_Vec_base_types@PAVParticleBatch2D@BookEngine@@V?$allocator@PAVParticleBatch2D@BookEngine@@@std@@@std@@@std@@QAEXXZ
	?_Alloc_proxy@?$_Vector_alloc@U?$_Vec_base_types@U?$tvec2@M$0A@@glm@@V?$allocator@U?$tvec2@M$0A@@glm@@@std@@@std@@@std@@QAEXXZ
	?_Alloc_proxy@?$_Vector_alloc@U?$_Vec_base_types@U?$tvec3@M$0A@@glm@@V?$allocator@U?$tvec3@M$0A@@glm@@@std@@@std@@@std@@QAEXXZ
	?_Alloc_proxy@?$_Vector_alloc@U?$_Vec_base_types@U?$tvec4@M$0A@@glm@@V?$allocator@U?$tvec4@M$0A@@glm@@@std@@@std@@@std@@QAEXXZ
	?_Alloc_proxy@?$_Vector_alloc@U?$_Vec_base_types@UVertex2D@BookEngine@@V?$allocator@UVertex2D@BookEngine@@@std@@@std@@@std@@QAEXXZ
	?_Alloc_proxy@?$_Vector_alloc@U?$_Vec_base_types@V?$_List_unchecked_iterator@V?$_List_val@U?$_List_simple_types@U?$pair@$$CBI_N@std@@@std@@@std@@@std@@V?$allocator@V?$_List_unchecked_iterator@V?$_List_val@U?$_List_simple_types@U?$pair@$$CBI_N@std@@@std@@@std@@@std@@@2@@std@@@std@@QAEXXZ
	?_Alloc_proxy@?$_Vector_alloc@U?$_Vec_base_types@VBatchRenderr@BookEngine@@V?$allocator@VBatchRenderr@BookEngine@@@std@@@std@@@std@@QAEXXZ
	?_Alloc_proxy@?$_Vector_alloc@U?$_Vec_base_types@VGlyph@BookEngine@@V?$allocator@VGlyph@BookEngine@@@std@@@std@@@std@@QAEXXZ
	?_Assign_rv_contents_with_alloc_always_equal@?$basic_string@DU?$char_traits@D@std@@V?$allocator@D@2@@std@@QAEX$$QAV12@U?$integral_constant@_N$00@2@@Z
	?_Become_small@?$basic_string@DU?$char_traits@D@std@@V?$allocator@D@2@@std@@QAEXXZ
	?_Begin@?$_Hash@V?$_Umap_traits@I_NV?$_Uhash_compare@IU?$hash@I@std@@U?$equal_to@I@2@@std@@V?$allocator@U?$pair@$$CBI_N@std@@@2@$0A@@std@@@std@@IAE?AV?$_List_unchecked_iterator@V?$_List_val@U?$_List_simple_types@U?$pair@$$CBI_N@std@@@std@@@std@@@2@I@Z
	?_Begin@?$_Temporary_range@PAVGlyph@BookEngine@@@std@@QAEPAPAVGlyph@BookEngine@@XZ
	?_Buy@?$vector@DV?$allocator@D@std@@@std@@AAE_NI@Z
	?_Buy@?$vector@EV?$allocator@E@std@@@std@@AAE_NI@Z
	?_Buy@?$vector@KV?$allocator@K@std@@@std@@AAE_NI@Z
	?_Buy@?$vector@V?$_List_unchecked_iterator@V?$_List_val@U?$_List_simple_types@U?$pair@$$CBI_N@std@@@std@@@std@@@std@@V?$allocator@V?$_List_unchecked_iterator@V?$_List_val@U?$_List_simple_types@U?$pair@$$CBI_N@std@@@std@@@std@@@std@@@2@@std@@AAE_NI@Z
	?_Buyheadnode@?$_List_alloc@U?$_List_base_types@U?$pair@$$CBI_N@std@@V?$allocator@U?$pair@$$CBI_N@std@@@2@@std@@@std@@QAEPAU?$_List_node@U?$pair@$$CBI_N@std@@PAX@2@XZ
	?_Buyheadnode@?$_Tree_comp_alloc@V?$_Tmap_traits@V?$basic_string@DU?$char_traits@D@std@@V?$allocator@D@2@@std@@PAUMix_Chunk@@U?$less@V?$basic_string@DU?$char_traits@D@std@@V?$allocator@D@2@@std@@@2@V?$allocator@U?$pair@$$CBV?$basic_string@DU?$char_traits@D@std@@V?$allocator@D@2@@std@@PAUMix_Chunk@@@std@@@2@$0A@@std@@@std@@QAEPAU?$_Tree_node@U?$pair@$$CBV?$basic_string@DU?$char_traits@D@std@@V?$allocator@D@2@@std@@PAUMix_Chunk@@@std@@PAX@2@XZ
	?_Buyheadnode@?$_Tree_comp_alloc@V?$_Tmap_traits@V?$basic_string@DU?$char_traits@D@std@@V?$allocator@D@2@@std@@PAU_Mix_Music@@U?$less@V?$basic_string@DU?$char_traits@D@std@@V?$allocator@D@2@@std@@@2@V?$allocator@U?$pair@$$CBV?$basic_string@DU?$char_traits@D@std@@V?$allocator@D@2@@std@@PAU_Mix_Music@@@std@@@2@$0A@@std@@@std@@QAEPAU?$_Tree_node@U?$pair@$$CBV?$basic_string@DU?$char_traits@D@std@@V?$allocator@D@2@@std@@PAU_Mix_Music@@@std@@PAX@2@XZ
	?_Buyheadnode@?$_Tree_comp_alloc@V?$_Tmap_traits@V?$basic_string@DU?$char_traits@D@std@@V?$allocator@D@2@@std@@UGLTexture@BookEngine@@U?$less@V?$basic_string@DU?$char_traits@D@std@@V?$allocator@D@2@@std@@@2@V?$allocator@U?$pair@$$CBV?$basic_string@DU?$char_traits@D@std@@V?$allocator@D@2@@std@@UGLTexture@BookEngine@@@std@@@2@$0A@@std@@@std@@QAEPAU?$_Tree_node@U?$pair@$$CBV?$basic_string@DU?$char_traits@D@std@@V?$allocator@D@2@@std@@UGLTexture@BookEngine@@@std@@PAX@2@XZ
	?_Buynode0@?$_List_alloc@U?$_List_base_types@U?$pair@$$CBI_N@std@@V?$allocator@U?$pair@$$CBI_N@std@@@2@@std@@@std@@QAEPAU?$_List_node@U?$pair@$$CBI_N@std@@PAX@2@PAU32@0@Z
	?_Buynode0@?$_Tree_comp_alloc@V?$_Tmap_traits@V?$basic_string@DU?$char_traits@D@std@@V?$allocator@D@2@@std@@PAUMix_Chunk@@U?$less@V?$basic_string@DU?$char_traits@D@std@@V?$allocator@D@2@@std@@@2@V?$allocator@U?$pair@$$CBV?$basic_string@DU?$char_traits@D@std@@V?$allocator@D@2@@std@@PAUMix_Chunk@@@std@@@2@$0A@@std@@@std@@QAEPAU?$_Tree_node@U?$pair@$$CBV?$basic_string@DU?$char_traits@D@std@@V?$allocator@D@2@@std@@PAUMix_Chunk@@@std@@PAX@2@XZ
	?_Buynode0@?$_Tree_comp_alloc@V?$_Tmap_traits@V?$basic_string@DU?$char_traits@D@std@@V?$allocator@D@2@@std@@PAU_Mix_Music@@U?$less@V?$basic_string@DU?$char_traits@D@std@@V?$allocator@D@2@@std@@@2@V?$allocator@U?$pair@$$CBV?$basic_string@DU?$char_traits@D@std@@V?$allocator@D@2@@std@@PAU_Mix_Music@@@std@@@2@$0A@@std@@@std@@QAEPAU?$_Tree_node@U?$pair@$$CBV?$basic_string@DU?$char_traits@D@std@@V?$allocator@D@2@@std@@PAU_Mix_Music@@@std@@PAX@2@XZ
	?_Buynode0@?$_Tree_comp_alloc@V?$_Tmap_traits@V?$basic_string@DU?$char_traits@D@std@@V?$allocator@D@2@@std@@UGLTexture@BookEngine@@U?$less@V?$basic_string@DU?$char_traits@D@std@@V?$allocator@D@2@@std@@@2@V?$allocator@U?$pair@$$CBV?$basic_string@DU?$char_traits@D@std@@V?$allocator@D@2@@std@@UGLTexture@BookEngine@@@std@@@2@$0A@@std@@@std@@QAEPAU?$_Tree_node@U?$pair@$$CBV?$basic_string@DU?$char_traits@D@std@@V?$allocator@D@2@@std@@UGLTexture@BookEngine@@@std@@PAX@2@XZ
	?_Calculate_growth@?$basic_string@DU?$char_traits@D@std@@V?$allocator@D@2@@std@@QBEII@Z
	?_Calculate_growth@?$vector@EV?$allocator@E@std@@@std@@ABEII@Z
	?_Calculate_growth@?$vector@HV?$allocator@H@std@@@std@@ABEII@Z
	?_Calculate_growth@?$vector@IV?$allocator@I@std@@@std@@ABEII@Z
	?_Calculate_growth@?$vector@KV?$allocator@K@std@@@std@@ABEII@Z
	?_Calculate_growth@?$vector@PAVGlyph@BookEngine@@V?$allocator@PAVGlyph@BookEngine@@@std@@@std@@ABEII@Z
	?_Calculate_growth@?$vector@PAVIScreen@BookEngine@@V?$allocator@PAVIScreen@BookEngine@@@std@@@std@@ABEII@Z
	?_Calculate_growth@?$vector@PAVParticleBatch2D@BookEngine@@V?$allocator@PAVParticleBatch2D@BookEngine@@@std@@@std@@ABEII@Z
	?_Calculate_growth@?$vector@U?$tvec2@M$0A@@glm@@V?$allocator@U?$tvec2@M$0A@@glm@@@std@@@std@@ABEII@Z
	?_Calculate_growth@?$vector@U?$tvec3@M$0A@@glm@@V?$allocator@U?$tvec3@M$0A@@glm@@@std@@@std@@ABEII@Z
	?_Calculate_growth@?$vector@U?$tvec4@M$0A@@glm@@V?$allocator@U?$tvec4@M$0A@@glm@@@std@@@std@@ABEII@Z
	?_Calculate_growth@?$vector@UVertex2D@BookEngine@@V?$allocator@UVertex2D@BookEngine@@@std@@@std@@ABEII@Z
	?_Calculate_growth@?$vector@V?$_List_unchecked_iterator@V?$_List_val@U?$_List_simple_types@U?$pair@$$CBI_N@std@@@std@@@std@@@std@@V?$allocator@V?$_List_unchecked_iterator@V?$_List_val@U?$_List_simple_types@U?$pair@$$CBI_N@std@@@std@@@std@@@std@@@2@@std@@ABEII@Z
	?_Calculate_growth@?$vector@VBatchRenderr@BookEngine@@V?$allocator@VBatchRenderr@BookEngine@@@std@@@std@@ABEII@Z
	?_Calculate_growth@?$vector@VGlyph@BookEngine@@V?$allocator@VGlyph@BookEngine@@@std@@@std@@ABEII@Z
	?_Change_array@?$vector@EV?$allocator@E@std@@@std@@AAEXQAEII@Z
	?_Change_array@?$vector@HV?$allocator@H@std@@@std@@AAEXQAHII@Z
	?_Change_array@?$vector@IV?$allocator@I@std@@@std@@AAEXQAIII@Z
	?_Change_array@?$vector@KV?$allocator@K@std@@@std@@AAEXQAKII@Z
	?_Change_array@?$vector@PAVGlyph@BookEngine@@V?$allocator@PAVGlyph@BookEngine@@@std@@@std@@AAEXQAPAVGlyph@BookEngine@@II@Z
	?_Change_array@?$vector@PAVIScreen@BookEngine@@V?$allocator@PAVIScreen@BookEngine@@@std@@@std@@AAEXQAPAVIScreen@BookEngine@@II@Z
	?_Change_array@?$vector@PAVParticleBatch2D@BookEngine@@V?$allocator@PAVParticleBatch2D@BookEngine@@@std@@@std@@AAEXQAPAVParticleBatch2D@BookEngine@@II@Z
	?_Change_array@?$vector@U?$tvec2@M$0A@@glm@@V?$allocator@U?$tvec2@M$0A@@glm@@@std@@@std@@AAEXQAU?$tvec2@M$0A@@glm@@II@Z
	?_Change_array@?$vector@U?$tvec3@M$0A@@glm@@V?$allocator@U?$tvec3@M$0A@@glm@@@std@@@std@@AAEXQAU?$tvec3@M$0A@@glm@@II@Z
	?_Change_array@?$vector@U?$tvec4@M$0A@@glm@@V?$allocator@U?$tvec4@M$0A@@glm@@@std@@@std@@AAEXQAU?$tvec4@M$0A@@glm@@II@Z
	?_Change_array@?$vector@UVertex2D@BookEngine@@V?$allocator@UVertex2D@BookEngine@@@std@@@std@@AAEXQAUVertex2D@BookEngine@@II@Z
	?_Change_array@?$vector@V?$_List_unchecked_iterator@V?$_List_val@U?$_List_simple_types@U?$pair@$$CBI_N@std@@@std@@@std@@@std@@V?$allocator@V?$_List_unchecked_iterator@V?$_List_val@U?$_List_simple_types@U?$pair@$$CBI_N@std@@@std@@@std@@@std@@@2@@std@@AAEXQAV?$_List_unchecked_iterator@V?$_List_val@U?$_List_simple_types@U?$pair@$$CBI_N@std@@@std@@@std@@@2@II@Z
	?_Change_array@?$vector@VBatchRenderr@BookEngine@@V?$allocator@VBatchRenderr@BookEngine@@@std@@@std@@AAEXQAVBatchRenderr@BookEngine@@II@Z
	?_Change_array@?$vector@VGlyph@BookEngine@@V?$allocator@VGlyph@BookEngine@@@std@@@std@@AAEXQAVGlyph@BookEngine@@II@Z
	?_Check_offset@?$_String_val@U?$_Simple_types@D@std@@@std@@QBEXI@Z
	?_Check_size@?$_Hash@V?$_Umap_traits@I_NV?$_Uhash_compare@IU?$hash@I@std@@U?$equal_to@I@2@@std@@V?$allocator@U?$pair@$$CBI_N@std@@@2@$0A@@std@@@std@@IAEXXZ
	?_Clamp_suffix_size@?$_String_val@U?$_Simple_types@D@std@@@std@@QBEIII@Z
	?_Clrcont@_Iterator_base12@std@@QAEXXZ
	?_Compare@?$_Tree@V?$_Tmap_traits@V?$basic_string@DU?$char_traits@D@std@@V?$allocator@D@2@@std@@PAUMix_Chunk@@U?$less@V?$basic_string@DU?$char_traits@D@std@@V?$allocator@D@2@@std@@@2@V?$allocator@U?$pair@$$CBV?$basic_string@DU?$char_traits@D@std@@V?$allocator@D@2@@std@@PAUMix_Chunk@@@std@@@2@$0A@@std@@@std@@IBE_NABV?$basic_string@DU?$char_traits@D@std@@V?$allocator@D@2@@2@0@Z
	?_Compare@?$_Tree@V?$_Tmap_traits@V?$basic_string@DU?$char_traits@D@std@@V?$allocator@D@2@@std@@PAU_Mix_Music@@U?$less@V?$basic_string@DU?$char_traits@D@std@@V?$allocator@D@2@@std@@@2@V?$allocator@U?$pair@$$CBV?$basic_string@DU?$char_traits@D@std@@V?$allocator@D@2@@std@@PAU_Mix_Music@@@std@@@2@$0A@@std@@@std@@IBE_NABV?$basic_string@DU?$char_traits@D@std@@V?$allocator@D@2@@2@0@Z
	?_Compare@?$_Tree@V?$_Tmap_traits@V?$basic_string@DU?$char_traits@D@std@@V?$allocator@D@2@@std@@UGLTexture@BookEngine@@U?$less@V?$basic_string@DU?$char_traits@D@std@@V?$allocator@D@2@@std@@@2@V?$allocator@U?$pair@$$CBV?$basic_string@DU?$char_traits@D@std@@V?$allocator@D@2@@std@@UGLTexture@BookEngine@@@std@@@2@$0A@@std@@@std@@IBE_NABV?$basic_string@DU?$char_traits@D@std@@V?$allocator@D@2@@2@0@Z
	?_Compat@?$_Vector_const_iterator@V?$_Vector_val@U?$_Simple_types@PAVGlyph@BookEngine@@@std@@@std@@@std@@QBEXABV12@@Z
	?_Construct@?$_Tree_comp_alloc@V?$_Tmap_traits@V?$basic_string@DU?$char_traits@D@std@@V?$allocator@D@2@@std@@PAUMix_Chunk@@U?$less@V?$basic_string@DU?$char_traits@D@std@@V?$allocator@D@2@@std@@@2@V?$allocator@U?$pair@$$CBV?$basic_string@DU?$char_traits@D@std@@V?$allocator@D@2@@std@@PAUMix_Chunk@@@std@@@2@$0A@@std@@@std@@QAEXXZ
	?_Construct@?$_Tree_comp_alloc@V?$_Tmap_traits@V?$basic_string@DU?$char_traits@D@std@@V?$allocator@D@2@@std@@PAU_Mix_Music@@U?$less@V?$basic_string@DU?$char_traits@D@std@@V?$allocator@D@2@@std@@@2@V?$allocator@U?$pair@$$CBV?$basic_string@DU?$char_traits@D@std@@V?$allocator@D@2@@std@@PAU_Mix_Music@@@std@@@2@$0A@@std@@@std@@QAEXXZ
	?_Construct@?$_Tree_comp_alloc@V?$_Tmap_traits@V?$basic_string@DU?$char_traits@D@std@@V?$allocator@D@2@@std@@UGLTexture@BookEngine@@U?$less@V?$basic_string@DU?$char_traits@D@std@@V?$allocator@D@2@@std@@@2@V?$allocator@U?$pair@$$CBV?$basic_string@DU?$char_traits@D@std@@V?$allocator@D@2@@std@@UGLTexture@BookEngine@@@std@@@2@$0A@@std@@@std@@QAEXXZ
	?_Construct@?$basic_string@DU?$char_traits@D@std@@V?$allocator@D@2@@std@@QAEXQAD0Urandom_access_iterator_tag@2@@Z
	?_Construct_lv_contents@?$basic_string@DU?$char_traits@D@std@@V?$allocator@D@2@@std@@QAEXABV12@@Z
	?_Deallocate@std@@YAXPAXIII@Z
	?_Destroy@?$vector@DV?$allocator@D@std@@@std@@AAEXPAD0@Z
	?_Destroy@?$vector@EV?$allocator@E@std@@@std@@AAEXPAE0@Z
	?_Destroy@?$vector@HV?$allocator@H@std@@@std@@AAEXPAH0@Z
	?_Destroy@?$vector@IV?$allocator@I@std@@@std@@AAEXPAI0@Z
	?_Destroy@?$vector@KV?$allocator@K@std@@@std@@AAEXPAK0@Z
	?_Destroy@?$vector@PAVGlyph@BookEngine@@V?$allocator@PAVGlyph@BookEngine@@@std@@@std@@AAEXPAPAVGlyph@BookEngine@@0@Z
	?_Destroy@?$vector@PAVIScreen@BookEngine@@V?$allocator@PAVIScreen@BookEngine@@@std@@@std@@AAEXPAPAVIScreen@BookEngine@@0@Z
	?_Destroy@?$vector@PAVParticleBatch2D@BookEngine@@V?$allocator@PAVParticleBatch2D@BookEngine@@@std@@@std@@AAEXPAPAVParticleBatch2D@BookEngine@@0@Z
	?_Destroy@?$vector@U?$tvec2@M$0A@@glm@@V?$allocator@U?$tvec2@M$0A@@glm@@@std@@@std@@AAEXPAU?$tvec2@M$0A@@glm@@0@Z
	?_Destroy@?$vector@U?$tvec3@M$0A@@glm@@V?$allocator@U?$tvec3@M$0A@@glm@@@std@@@std@@AAEXPAU?$tvec3@M$0A@@glm@@0@Z
	?_Destroy@?$vector@U?$tvec4@M$0A@@glm@@V?$allocator@U?$tvec4@M$0A@@glm@@@std@@@std@@AAEXPAU?$tvec4@M$0A@@glm@@0@Z
	?_Destroy@?$vector@UVertex2D@BookEngine@@V?$allocator@UVertex2D@BookEngine@@@std@@@std@@AAEXPAUVertex2D@BookEngine@@0@Z
	?_Destroy@?$vector@V?$_List_unchecked_iterator@V?$_List_val@U?$_List_simple_types@U?$pair@$$CBI_N@std@@@std@@@std@@@std@@V?$allocator@V?$_List_unchecked_iterator@V?$_List_val@U?$_List_simple_types@U?$pair@$$CBI_N@std@@@std@@@std@@@std@@@2@@std@@AAEXPAV?$_List_unchecked_iterator@V?$_List_val@U?$_List_simple_types@U?$pair@$$CBI_N@std@@@std@@@std@@@2@0@Z
	?_Destroy@?$vector@VBatchRenderr@BookEngine@@V?$allocator@VBatchRenderr@BookEngine@@@std@@@std@@AAEXPAVBatchRenderr@BookEngine@@0@Z
	?_Destroy@?$vector@VGlyph@BookEngine@@V?$allocator@VGlyph@BookEngine@@@std@@@std@@AAEXPAVGlyph@BookEngine@@0@Z
	?_Destroy_if_node@?$_Hash@V?$_Umap_traits@I_NV?$_Uhash_compare@IU?$hash@I@std@@U?$equal_to@I@2@@std@@V?$allocator@U?$pair@$$CBI_N@std@@@2@$0A@@std@@@std@@IAEXV?$_List_unchecked_iterator@V?$_List_val@U?$_List_simple_types@U?$pair@$$CBI_N@std@@@std@@@std@@@2@@Z
	?_Destroy_if_node@?$_Tree@V?$_Tmap_traits@V?$basic_string@DU?$char_traits@D@std@@V?$allocator@D@2@@std@@PAUMix_Chunk@@U?$less@V?$basic_string@DU?$char_traits@D@std@@V?$allocator@D@2@@std@@@2@V?$allocator@U?$pair@$$CBV?$basic_string@DU?$char_traits@D@std@@V?$allocator@D@2@@std@@PAUMix_Chunk@@@std@@@2@$0A@@std@@@std@@IAEXPAU?$_Tree_node@U?$pair@$$CBV?$basic_string@DU?$char_traits@D@std@@V?$allocator@D@2@@std@@PAUMix_Chunk@@@std@@PAX@2@@Z
	?_Destroy_if_node@?$_Tree@V?$_Tmap_traits@V?$basic_string@DU?$char_traits@D@std@@V?$allocator@D@2@@std@@PAU_Mix_Music@@U?$less@V?$basic_string@DU?$char_traits@D@std@@V?$allocator@D@2@@std@@@2@V?$allocator@U?$pair@$$CBV?$basic_string@DU?$char_traits@D@std@@V?$allocator@D@2@@std@@PAU_Mix_Music@@@std@@@2@$0A@@std@@@std@@IAEXPAU?$_Tree_node@U?$pair@$$CBV?$basic_string@DU?$char_traits@D@std@@V?$allocator@D@2@@std@@PAU_Mix_Music@@@std@@PAX@2@@Z
	?_Destroy_if_node@?$_Tree@V?$_Tmap_traits@V?$basic_string@DU?$char_traits@D@std@@V?$allocator@D@2@@std@@UGLTexture@BookEngine@@U?$less@V?$basic_string@DU?$char_traits@D@std@@V?$allocator@D@2@@std@@@2@V?$allocator@U?$pair@$$CBV?$basic_string@DU?$char_traits@D@std@@V?$allocator@D@2@@std@@UGLTexture@BookEngine@@@std@@@2@$0A@@std@@@std@@IAEXPAU?$_Tree_node@U?$pair@$$CBV?$basic_string@DU?$char_traits@D@std@@V?$allocator@D@2@@std@@UGLTexture@BookEngine@@@std@@PAX@2@@Z
	?_Do_hash@?$hash@I@std@@SAIABI@Z
	?_Empty@?$_Func_class@XAAVParticle2D@BookEngine@@M@std@@IBE_NXZ
	?_End@?$_Hash@V?$_Umap_traits@I_NV?$_Uhash_compare@IU?$hash@I@std@@U?$equal_to@I@2@@std@@V?$allocator@U?$pair@$$CBI_N@std@@@2@$0A@@std@@@std@@IAE?AV?$_List_unchecked_iterator@V?$_List_val@U?$_List_simple_types@U?$pair@$$CBI_N@std@@@std@@@std@@@2@I@Z
	?_End@?$_Temporary_range@PAVGlyph@BookEngine@@@std@@QAEPAPAVGlyph@BookEngine@@XZ
	?_Endwrite@?$basic_filebuf@DU?$char_traits@D@std@@@std@@IAE_NXZ
	?_Eos@?$basic_string@DU?$char_traits@D@std@@V?$allocator@D@2@@std@@QAEXI@Z
	?_Equal@?$basic_string@DU?$char_traits@D@std@@V?$allocator@D@2@@std@@QBE_NQBD@Z
	?_Erase@?$_Tree@V?$_Tmap_traits@V?$basic_string@DU?$char_traits@D@std@@V?$allocator@D@2@@std@@PAUMix_Chunk@@U?$less@V?$basic_string@DU?$char_traits@D@std@@V?$allocator@D@2@@std@@@2@V?$allocator@U?$pair@$$CBV?$basic_string@DU?$char_traits@D@std@@V?$allocator@D@2@@std@@PAUMix_Chunk@@@std@@@2@$0A@@std@@@std@@IAEXPAU?$_Tree_node@U?$pair@$$CBV?$basic_string@DU?$char_traits@D@std@@V?$allocator@D@2@@std@@PAUMix_Chunk@@@std@@PAX@2@@Z
	?_Erase@?$_Tree@V?$_Tmap_traits@V?$basic_string@DU?$char_traits@D@std@@V?$allocator@D@2@@std@@PAU_Mix_Music@@U?$less@V?$basic_string@DU?$char_traits@D@std@@V?$allocator@D@2@@std@@@2@V?$allocator@U?$pair@$$CBV?$basic_string@DU?$char_traits@D@std@@V?$allocator@D@2@@std@@PAU_Mix_Music@@@std@@@2@$0A@@std@@@std@@IAEXPAU?$_Tree_node@U?$pair@$$CBV?$basic_string@DU?$char_traits@D@std@@V?$allocator@D@2@@std@@PAU_Mix_Music@@@std@@PAX@2@@Z
	?_Erase@?$_Tree@V?$_Tmap_traits@V?$basic_string@DU?$char_traits@D@std@@V?$allocator@D@2@@std@@UGLTexture@BookEngine@@U?$less@V?$basic_string@DU?$char_traits@D@std@@V?$allocator@D@2@@std@@@2@V?$allocator@U?$pair@$$CBV?$basic_string@DU?$char_traits@D@std@@V?$allocator@D@2@@std@@UGLTexture@BookEngine@@@std@@@2@$0A@@std@@@std@@IAEXPAU?$_Tree_node@U?$pair@$$CBV?$basic_string@DU?$char_traits@D@std@@V?$allocator@D@2@@std@@UGLTexture@BookEngine@@@std@@PAX@2@@Z
	?_Erase_bucket@?$_Hash@V?$_Umap_traits@I_NV?$_Uhash_compare@IU?$hash@I@std@@U?$equal_to@I@2@@std@@V?$allocator@U?$pair@$$CBI_N@std@@@2@$0A@@std@@@std@@IAEXV?$_List_iterator@V?$_List_val@U?$_List_simple_types@U?$pair@$$CBI_N@std@@@std@@@std@@@2@I@Z
	?_Extract@?$_Tree@V?$_Tmap_traits@V?$basic_string@DU?$char_traits@D@std@@V?$allocator@D@2@@std@@PAUMix_Chunk@@U?$less@V?$basic_string@DU?$char_traits@D@std@@V?$allocator@D@2@@std@@@2@V?$allocator@U?$pair@$$CBV?$basic_string@DU?$char_traits@D@std@@V?$allocator@D@2@@std@@PAUMix_Chunk@@@std@@@2@$0A@@std@@@std@@QAEPAU?$_Tree_node@U?$pair@$$CBV?$basic_string@DU?$char_traits@D@std@@V?$allocator@D@2@@std@@PAUMix_Chunk@@@std@@PAX@2@V?$_Tree_const_iterator@V?$_Tree_val@U?$_Tree_simple_types@U?$pair@$$CBV?$basic_string@DU?$char_traits@D@std@@V?$allocator@D@2@@std@@PAUMix_Chunk@@@std@@@std@@@std@@@2@@Z
	?_Extract@?$_Tree@V?$_Tmap_traits@V?$basic_string@DU?$char_traits@D@std@@V?$allocator@D@2@@std@@PAU_Mix_Music@@U?$less@V?$basic_string@DU?$char_traits@D@std@@V?$allocator@D@2@@std@@@2@V?$allocator@U?$pair@$$CBV?$basic_string@DU?$char_traits@D@std@@V?$allocator@D@2@@std@@PAU_Mix_Music@@@std@@@2@$0A@@std@@@std@@QAEPAU?$_Tree_node@U?$pair@$$CBV?$basic_string@DU?$char_traits@D@std@@V?$allocator@D@2@@std@@PAU_Mix_Music@@@std@@PAX@2@V?$_Tree_const_iterator@V?$_Tree_val@U?$_Tree_simple_types@U?$pair@$$CBV?$basic_string@DU?$char_traits@D@std@@V?$allocator@D@2@@std@@PAU_Mix_Music@@@std@@@std@@@std@@@2@@Z
	?_Extract@?$_Tree@V?$_Tmap_traits@V?$basic_string@DU?$char_traits@D@std@@V?$allocator@D@2@@std@@UGLTexture@BookEngine@@U?$less@V?$basic_string@DU?$char_traits@D@std@@V?$allocator@D@2@@std@@@2@V?$allocator@U?$pair@$$CBV?$basic_string@DU?$char_traits@D@std@@V?$allocator@D@2@@std@@UGLTexture@BookEngine@@@std@@@2@$0A@@std@@@std@@QAEPAU?$_Tree_node@U?$pair@$$CBV?$basic_string@DU?$char_traits@D@std@@V?$allocator@D@2@@std@@UGLTexture@BookEngine@@@std@@PAX@2@V?$_Tree_const_iterator@V?$_Tree_val@U?$_Tree_simple_types@U?$pair@$$CBV?$basic_string@DU?$char_traits@D@std@@V?$allocator@D@2@@std@@UGLTexture@BookEngine@@@std@@@std@@@std@@@2@@Z
	?_Fail@?$_Default_allocate_traits@$00@std@@SAXXZ
	?_Free_proxy@?$_List_alloc@U?$_List_base_types@U?$pair@$$CBI_N@std@@V?$allocator@U?$pair@$$CBI_N@std@@@2@@std@@@std@@QAEXXZ
	?_Free_proxy@?$_String_alloc@U?$_String_base_types@DV?$allocator@D@std@@@std@@@std@@QAEXXZ
	?_Free_proxy@?$_Tree_comp_alloc@V?$_Tmap_traits@V?$basic_string@DU?$char_traits@D@std@@V?$allocator@D@2@@std@@PAUMix_Chunk@@U?$less@V?$basic_string@DU?$char_traits@D@std@@V?$allocator@D@2@@std@@@2@V?$allocator@U?$pair@$$CBV?$basic_string@DU?$char_traits@D@std@@V?$allocator@D@2@@std@@PAUMix_Chunk@@@std@@@2@$0A@@std@@@std@@QAEXXZ
	?_Free_proxy@?$_Tree_comp_alloc@V?$_Tmap_traits@V?$basic_string@DU?$char_traits@D@std@@V?$allocator@D@2@@std@@PAU_Mix_Music@@U?$less@V?$basic_string@DU?$char_traits@D@std@@V?$allocator@D@2@@std@@@2@V?$allocator@U?$pair@$$CBV?$basic_string@DU?$char_traits@D@std@@V?$allocator@D@2@@std@@PAU_Mix_Music@@@std@@@2@$0A@@std@@@std@@QAEXXZ
	?_Free_proxy@?$_Tree_comp_alloc@V?$_Tmap_traits@V?$basic_string@DU?$char_traits@D@std@@V?$allocator@D@2@@std@@UGLTexture@BookEngine@@U?$less@V?$basic_string@DU?$char_traits@D@std@@V?$allocator@D@2@@std@@@2@V?$allocator@U?$pair@$$CBV?$basic_string@DU?$char_traits@D@std@@V?$allocator@D@2@@std@@UGLTexture@BookEngine@@@std@@@2@$0A@@std@@@std@@QAEXXZ
	?_Free_proxy@?$_Vector_alloc@U?$_Vec_base_types@DV?$allocator@D@std@@@std@@@std@@QAEXXZ
	?_Free_proxy@?$_Vector_alloc@U?$_Vec_base_types@EV?$allocator@E@std@@@std@@@std@@QAEXXZ
	?_Free_proxy@?$_Vector_alloc@U?$_Vec_base_types@HV?$allocator@H@std@@@std@@@std@@QAEXXZ
	?_Free_proxy@?$_Vector_alloc@U?$_Vec_base_types@IV?$allocator@I@std@@@std@@@std@@QAEXXZ
	?_Free_proxy@?$_Vector_alloc@U?$_Vec_base_types@KV?$allocator@K@std@@@std@@@std@@QAEXXZ
	?_Free_proxy@?$_Vector_alloc@U?$_Vec_base_types@PAVGlyph@BookEngine@@V?$allocator@PAVGlyph@BookEngine@@@std@@@std@@@std@@QAEXXZ
	?_Free_proxy@?$_Vector_alloc@U?$_Vec_base_types@PAVIScreen@BookEngine@@V?$allocator@PAVIScreen@BookEngine@@@std@@@std@@@std@@QAEXXZ
	?_Free_proxy@?$_Vector_alloc@U?$_Vec_base_types@PAVParticleBatch2D@BookEngine@@V?$allocator@PAVParticleBatch2D@BookEngine@@@std@@@std@@@std@@QAEXXZ
	?_Free_proxy@?$_Vector_alloc@U?$_Vec_base_types@U?$tvec2@M$0A@@glm@@V?$allocator@U?$tvec2@M$0A@@glm@@@std@@@std@@@std@@QAEXXZ
	?_Free_proxy@?$_Vector_alloc@U?$_Vec_base_types@U?$tvec3@M$0A@@glm@@V?$allocator@U?$tvec3@M$0A@@glm@@@std@@@std@@@std@@QAEXXZ
	?_Free_proxy@?$_Vector_alloc@U?$_Vec_base_types@UVertex2D@BookEngine@@V?$allocator@UVertex2D@BookEngine@@@std@@@std@@@std@@QAEXXZ
	?_Free_proxy@?$_Vector_alloc@U?$_Vec_base_types@V?$_List_unchecked_iterator@V?$_List_val@U?$_List_simple_types@U?$pair@$$CBI_N@std@@@std@@@std@@@std@@V?$allocator@V?$_List_unchecked_iterator@V?$_List_val@U?$_List_simple_types@U?$pair@$$CBI_N@std@@@std@@@std@@@std@@@2@@std@@@std@@QAEXXZ
	?_Free_proxy@?$_Vector_alloc@U?$_Vec_base_types@VBatchRenderr@BookEngine@@V?$allocator@VBatchRenderr@BookEngine@@@std@@@std@@@std@@QAEXXZ
	?_Free_proxy@?$_Vector_alloc@U?$_Vec_base_types@VGlyph@BookEngine@@V?$allocator@VGlyph@BookEngine@@@std@@@std@@@std@@QAEXXZ
	?_Freeheadnode@?$_List_alloc@U?$_List_base_types@U?$pair@$$CBI_N@std@@V?$allocator@U?$pair@$$CBI_N@std@@@2@@std@@@std@@QAEXPAU?$_List_node@U?$pair@$$CBI_N@std@@PAX@2@@Z
	?_Freeheadnode@?$_Tree_comp_alloc@V?$_Tmap_traits@V?$basic_string@DU?$char_traits@D@std@@V?$allocator@D@2@@std@@PAUMix_Chunk@@U?$less@V?$basic_string@DU?$char_traits@D@std@@V?$allocator@D@2@@std@@@2@V?$allocator@U?$pair@$$CBV?$basic_string@DU?$char_traits@D@std@@V?$allocator@D@2@@std@@PAUMix_Chunk@@@std@@@2@$0A@@std@@@std@@QAEXPAU?$_Tree_node@U?$pair@$$CBV?$basic_string@DU?$char_traits@D@std@@V?$allocator@D@2@@std@@PAUMix_Chunk@@@std@@PAX@2@@Z
	?_Freeheadnode@?$_Tree_comp_alloc@V?$_Tmap_traits@V?$basic_string@DU?$char_traits@D@std@@V?$allocator@D@2@@std@@PAU_Mix_Music@@U?$less@V?$basic_string@DU?$char_traits@D@std@@V?$allocator@D@2@@std@@@2@V?$allocator@U?$pair@$$CBV?$basic_string@DU?$char_traits@D@std@@V?$allocator@D@2@@std@@PAU_Mix_Music@@@std@@@2@$0A@@std@@@std@@QAEXPAU?$_Tree_node@U?$pair@$$CBV?$basic_string@DU?$char_traits@D@std@@V?$allocator@D@2@@std@@PAU_Mix_Music@@@std@@PAX@2@@Z
	?_Freeheadnode@?$_Tree_comp_alloc@V?$_Tmap_traits@V?$basic_string@DU?$char_traits@D@std@@V?$allocator@D@2@@std@@UGLTexture@BookEngine@@U?$less@V?$basic_string@DU?$char_traits@D@std@@V?$allocator@D@2@@std@@@2@V?$allocator@U?$pair@$$CBV?$basic_string@DU?$char_traits@D@std@@V?$allocator@D@2@@std@@UGLTexture@BookEngine@@@std@@@2@$0A@@std@@@std@@QAEXPAU?$_Tree_node@U?$pair@$$CBV?$basic_string@DU?$char_traits@D@std@@V?$allocator@D@2@@std@@UGLTexture@BookEngine@@@std@@PAX@2@@Z
	?_Freenode0@?$_Tree_comp_alloc@V?$_Tmap_traits@V?$basic_string@DU?$char_traits@D@std@@V?$allocator@D@2@@std@@PAUMix_Chunk@@U?$less@V?$basic_string@DU?$char_traits@D@std@@V?$allocator@D@2@@std@@@2@V?$allocator@U?$pair@$$CBV?$basic_string@DU?$char_traits@D@std@@V?$allocator@D@2@@std@@PAUMix_Chunk@@@std@@@2@$0A@@std@@@std@@QAEXPAU?$_Tree_node@U?$pair@$$CBV?$basic_string@DU?$char_traits@D@std@@V?$allocator@D@2@@std@@PAUMix_Chunk@@@std@@PAX@2@@Z
	?_Freenode0@?$_Tree_comp_alloc@V?$_Tmap_traits@V?$basic_string@DU?$char_traits@D@std@@V?$allocator@D@2@@std@@PAU_Mix_Music@@U?$less@V?$basic_string@DU?$char_traits@D@std@@V?$allocator@D@2@@std@@@2@V?$allocator@U?$pair@$$CBV?$basic_string@DU?$char_traits@D@std@@V?$allocator@D@2@@std@@PAU_Mix_Music@@@std@@@2@$0A@@std@@@std@@QAEXPAU?$_Tree_node@U?$pair@$$CBV?$basic_string@DU?$char_traits@D@std@@V?$allocator@D@2@@std@@PAU_Mix_Music@@@std@@PAX@2@@Z
	?_Freenode0@?$_Tree_comp_alloc@V?$_Tmap_traits@V?$basic_string@DU?$char_traits@D@std@@V?$allocator@D@2@@std@@UGLTexture@BookEngine@@U?$less@V?$basic_string@DU?$char_traits@D@std@@V?$allocator@D@2@@std@@@2@V?$allocator@U?$pair@$$CBV?$basic_string@DU?$char_traits@D@std@@V?$allocator@D@2@@std@@UGLTexture@BookEngine@@@std@@@2@$0A@@std@@@std@@QAEXPAU?$_Tree_node@U?$pair@$$CBV?$basic_string@DU?$char_traits@D@std@@V?$allocator@D@2@@std@@UGLTexture@BookEngine@@@std@@PAX@2@@Z
	?_Freenode@?$_List_buy@U?$pair@$$CBI_N@std@@V?$allocator@U?$pair@$$CBI_N@std@@@2@@std@@QAEXPAU?$_List_node@U?$pair@$$CBI_N@std@@PAX@2@@Z
	?_Get_bytes@?$_Default_allocate_traits@$00@std@@SAPAXII@Z
	?_Get_data@?$_List_alloc@U?$_List_base_types@U?$pair@$$CBI_N@std@@V?$allocator@U?$pair@$$CBI_N@std@@@2@@std@@@std@@QAEAAV?$_List_val@U?$_List_simple_types@U?$pair@$$CBI_N@std@@@std@@@2@XZ
	?_Get_data@?$_List_alloc@U?$_List_base_types@U?$pair@$$CBI_N@std@@V?$allocator@U?$pair@$$CBI_N@std@@@2@@std@@@std@@QBEABV?$_List_val@U?$_List_simple_types@U?$pair@$$CBI_N@std@@@std@@@2@XZ
	?_Get_data@?$_String_alloc@U?$_String_base_types@DV?$allocator@D@std@@@std@@@std@@QAEAAV?$_String_val@U?$_Simple_types@D@std@@@2@XZ
	?_Get_data@?$_String_alloc@U?$_String_base_types@DV?$allocator@D@std@@@std@@@std@@QBEABV?$_String_val@U?$_Simple_types@D@std@@@2@XZ
	?_Get_data@?$_Tree_comp_alloc@V?$_Tmap_traits@V?$basic_string@DU?$char_traits@D@std@@V?$allocator@D@2@@std@@PAUMix_Chunk@@U?$less@V?$basic_string@DU?$char_traits@D@std@@V?$allocator@D@2@@std@@@2@V?$allocator@U?$pair@$$CBV?$basic_string@DU?$char_traits@D@std@@V?$allocator@D@2@@std@@PAUMix_Chunk@@@std@@@2@$0A@@std@@@std@@QAEAAV?$_Tree_val@U?$_Tree_simple_types@U?$pair@$$CBV?$basic_string@DU?$char_traits@D@std@@V?$allocator@D@2@@std@@PAUMix_Chunk@@@std@@@std@@@2@XZ
	?_Get_data@?$_Tree_comp_alloc@V?$_Tmap_traits@V?$basic_string@DU?$char_traits@D@std@@V?$allocator@D@2@@std@@PAUMix_Chunk@@U?$less@V?$basic_string@DU?$char_traits@D@std@@V?$allocator@D@2@@std@@@2@V?$allocator@U?$pair@$$CBV?$basic_string@DU?$char_traits@D@std@@V?$allocator@D@2@@std@@PAUMix_Chunk@@@std@@@2@$0A@@std@@@std@@QBEABV?$_Tree_val@U?$_Tree_simple_types@U?$pair@$$CBV?$basic_string@DU?$char_traits@D@std@@V?$allocator@D@2@@std@@PAUMix_Chunk@@@std@@@std@@@2@XZ
	?_Get_data@?$_Tree_comp_alloc@V?$_Tmap_traits@V?$basic_string@DU?$char_traits@D@std@@V?$allocator@D@2@@std@@PAU_Mix_Music@@U?$less@V?$basic_string@DU?$char_traits@D@std@@V?$allocator@D@2@@std@@@2@V?$allocator@U?$pair@$$CBV?$basic_string@DU?$char_traits@D@std@@V?$allocator@D@2@@std@@PAU_Mix_Music@@@std@@@2@$0A@@std@@@std@@QAEAAV?$_Tree_val@U?$_Tree_simple_types@U?$pair@$$CBV?$basic_string@DU?$char_traits@D@std@@V?$allocator@D@2@@std@@PAU_Mix_Music@@@std@@@std@@@2@XZ
	?_Get_data@?$_Tree_comp_alloc@V?$_Tmap_traits@V?$basic_string@DU?$char_traits@D@std@@V?$allocator@D@2@@std@@PAU_Mix_Music@@U?$less@V?$basic_string@DU?$char_traits@D@std@@V?$allocator@D@2@@std@@@2@V?$allocator@U?$pair@$$CBV?$basic_string@DU?$char_traits@D@std@@V?$allocator@D@2@@std@@PAU_Mix_Music@@@std@@@2@$0A@@std@@@std@@QBEABV?$_Tree_val@U?$_Tree_simple_types@U?$pair@$$CBV?$basic_string@DU?$char_traits@D@std@@V?$allocator@D@2@@std@@PAU_Mix_Music@@@std@@@std@@@2@XZ
	?_Get_data@?$_Tree_comp_alloc@V?$_Tmap_traits@V?$basic_string@DU?$char_traits@D@std@@V?$allocator@D@2@@std@@UGLTexture@BookEngine@@U?$less@V?$basic_string@DU?$char_traits@D@std@@V?$allocator@D@2@@std@@@2@V?$allocator@U?$pair@$$CBV?$basic_string@DU?$char_traits@D@std@@V?$allocator@D@2@@std@@UGLTexture@BookEngine@@@std@@@2@$0A@@std@@@std@@QAEAAV?$_Tree_val@U?$_Tree_simple_types@U?$pair@$$CBV?$basic_string@DU?$char_traits@D@std@@V?$allocator@D@2@@std@@UGLTexture@BookEngine@@@std@@@std@@@2@XZ
	?_Get_data@?$_Tree_comp_alloc@V?$_Tmap_traits@V?$basic_string@DU?$char_traits@D@std@@V?$allocator@D@2@@std@@UGLTexture@BookEngine@@U?$less@V?$basic_string@DU?$char_traits@D@std@@V?$allocator@D@2@@std@@@2@V?$allocator@U?$pair@$$CBV?$basic_string@DU?$char_traits@D@std@@V?$allocator@D@2@@std@@UGLTexture@BookEngine@@@std@@@2@$0A@@std@@@std@@QBEABV?$_Tree_val@U?$_Tree_simple_types@U?$pair@$$CBV?$basic_string@DU?$char_traits@D@std@@V?$allocator@D@2@@std@@UGLTexture@BookEngine@@@std@@@std@@@2@XZ
	?_Get_data@?$_Vector_alloc@U?$_Vec_base_types@DV?$allocator@D@std@@@std@@@std@@QAEAAV?$_Vector_val@U?$_Simple_types@D@std@@@2@XZ
	?_Get_data@?$_Vector_alloc@U?$_Vec_base_types@DV?$allocator@D@std@@@std@@@std@@QBEABV?$_Vector_val@U?$_Simple_types@D@std@@@2@XZ
	?_Get_data@?$_Vector_alloc@U?$_Vec_base_types@EV?$allocator@E@std@@@std@@@std@@QAEAAV?$_Vector_val@U?$_Simple_types@E@std@@@2@XZ
	?_Get_data@?$_Vector_alloc@U?$_Vec_base_types@EV?$allocator@E@std@@@std@@@std@@QBEABV?$_Vector_val@U?$_Simple_types@E@std@@@2@XZ
	?_Get_data@?$_Vector_alloc@U?$_Vec_base_types@HV?$allocator@H@std@@@std@@@std@@QAEAAV?$_Vector_val@U?$_Simple_types@H@std@@@2@XZ
	?_Get_data@?$_Vector_alloc@U?$_Vec_base_types@HV?$allocator@H@std@@@std@@@std@@QBEABV?$_Vector_val@U?$_Simple_types@H@std@@@2@XZ
	?_Get_data@?$_Vector_alloc@U?$_Vec_base_types@IV?$allocator@I@std@@@std@@@std@@QAEAAV?$_Vector_val@U?$_Simple_types@I@std@@@2@XZ
	?_Get_data@?$_Vector_alloc@U?$_Vec_base_types@IV?$allocator@I@std@@@std@@@std@@QBEABV?$_Vector_val@U?$_Simple_types@I@std@@@2@XZ
	?_Get_data@?$_Vector_alloc@U?$_Vec_base_types@KV?$allocator@K@std@@@std@@@std@@QAEAAV?$_Vector_val@U?$_Simple_types@K@std@@@2@XZ
	?_Get_data@?$_Vector_alloc@U?$_Vec_base_types@KV?$allocator@K@std@@@std@@@std@@QBEABV?$_Vector_val@U?$_Simple_types@K@std@@@2@XZ
	?_Get_data@?$_Vector_alloc@U?$_Vec_base_types@PAVGlyph@BookEngine@@V?$allocator@PAVGlyph@BookEngine@@@std@@@std@@@std@@QAEAAV?$_Vector_val@U?$_Simple_types@PAVGlyph@BookEngine@@@std@@@2@XZ
	?_Get_data@?$_Vector_alloc@U?$_Vec_base_types@PAVGlyph@BookEngine@@V?$allocator@PAVGlyph@BookEngine@@@std@@@std@@@std@@QBEABV?$_Vector_val@U?$_Simple_types@PAVGlyph@BookEngine@@@std@@@2@XZ
	?_Get_data@?$_Vector_alloc@U?$_Vec_base_types@PAVIScreen@BookEngine@@V?$allocator@PAVIScreen@BookEngine@@@std@@@std@@@std@@QAEAAV?$_Vector_val@U?$_Simple_types@PAVIScreen@BookEngine@@@std@@@2@XZ
	?_Get_data@?$_Vector_alloc@U?$_Vec_base_types@PAVIScreen@BookEngine@@V?$allocator@PAVIScreen@BookEngine@@@std@@@std@@@std@@QBEABV?$_Vector_val@U?$_Simple_types@PAVIScreen@BookEngine@@@std@@@2@XZ
	?_Get_data@?$_Vector_alloc@U?$_Vec_base_types@PAVParticleBatch2D@BookEngine@@V?$allocator@PAVParticleBatch2D@BookEngine@@@std@@@std@@@std@@QAEAAV?$_Vector_val@U?$_Simple_types@PAVParticleBatch2D@BookEngine@@@std@@@2@XZ
	?_Get_data@?$_Vector_alloc@U?$_Vec_base_types@PAVParticleBatch2D@BookEngine@@V?$allocator@PAVParticleBatch2D@BookEngine@@@std@@@std@@@std@@QBEABV?$_Vector_val@U?$_Simple_types@PAVParticleBatch2D@BookEngine@@@std@@@2@XZ
	?_Get_data@?$_Vector_alloc@U?$_Vec_base_types@U?$tvec2@M$0A@@glm@@V?$allocator@U?$tvec2@M$0A@@glm@@@std@@@std@@@std@@QAEAAV?$_Vector_val@U?$_Simple_types@U?$tvec2@M$0A@@glm@@@std@@@2@XZ
	?_Get_data@?$_Vector_alloc@U?$_Vec_base_types@U?$tvec2@M$0A@@glm@@V?$allocator@U?$tvec2@M$0A@@glm@@@std@@@std@@@std@@QBEABV?$_Vector_val@U?$_Simple_types@U?$tvec2@M$0A@@glm@@@std@@@2@XZ
	?_Get_data@?$_Vector_alloc@U?$_Vec_base_types@U?$tvec3@M$0A@@glm@@V?$allocator@U?$tvec3@M$0A@@glm@@@std@@@std@@@std@@QAEAAV?$_Vector_val@U?$_Simple_types@U?$tvec3@M$0A@@glm@@@std@@@2@XZ
	?_Get_data@?$_Vector_alloc@U?$_Vec_base_types@U?$tvec3@M$0A@@glm@@V?$allocator@U?$tvec3@M$0A@@glm@@@std@@@std@@@std@@QBEABV?$_Vector_val@U?$_Simple_types@U?$tvec3@M$0A@@glm@@@std@@@2@XZ
	?_Get_data@?$_Vector_alloc@U?$_Vec_base_types@U?$tvec4@M$0A@@glm@@V?$allocator@U?$tvec4@M$0A@@glm@@@std@@@std@@@std@@QAEAAV?$_Vector_val@U?$_Simple_types@U?$tvec4@M$0A@@glm@@@std@@@2@XZ
	?_Get_data@?$_Vector_alloc@U?$_Vec_base_types@U?$tvec4@M$0A@@glm@@V?$allocator@U?$tvec4@M$0A@@glm@@@std@@@std@@@std@@QBEABV?$_Vector_val@U?$_Simple_types@U?$tvec4@M$0A@@glm@@@std@@@2@XZ
	?_Get_data@?$_Vector_alloc@U?$_Vec_base_types@UVertex2D@BookEngine@@V?$allocator@UVertex2D@BookEngine@@@std@@@std@@@std@@QAEAAV?$_Vector_val@U?$_Simple_types@UVertex2D@BookEngine@@@std@@@2@XZ
	?_Get_data@?$_Vector_alloc@U?$_Vec_base_types@UVertex2D@BookEngine@@V?$allocator@UVertex2D@BookEngine@@@std@@@std@@@std@@QBEABV?$_Vector_val@U?$_Simple_types@UVertex2D@BookEngine@@@std@@@2@XZ
	?_Get_data@?$_Vector_alloc@U?$_Vec_base_types@V?$_List_unchecked_iterator@V?$_List_val@U?$_List_simple_types@U?$pair@$$CBI_N@std@@@std@@@std@@@std@@V?$allocator@V?$_List_unchecked_iterator@V?$_List_val@U?$_List_simple_types@U?$pair@$$CBI_N@std@@@std@@@std@@@std@@@2@@std@@@std@@QAEAAV?$_Vector_val@U?$_Simple_types@V?$_List_unchecked_iterator@V?$_List_val@U?$_List_simple_types@U?$pair@$$CBI_N@std@@@std@@@std@@@std@@@std@@@2@XZ
	?_Get_data@?$_Vector_alloc@U?$_Vec_base_types@V?$_List_unchecked_iterator@V?$_List_val@U?$_List_simple_types@U?$pair@$$CBI_N@std@@@std@@@std@@@std@@V?$allocator@V?$_List_unchecked_iterator@V?$_List_val@U?$_List_simple_types@U?$pair@$$CBI_N@std@@@std@@@std@@@std@@@2@@std@@@std@@QBEABV?$_Vector_val@U?$_Simple_types@V?$_List_unchecked_iterator@V?$_List_val@U?$_List_simple_types@U?$pair@$$CBI_N@std@@@std@@@std@@@std@@@std@@@2@XZ
	?_Get_data@?$_Vector_alloc@U?$_Vec_base_types@VBatchRenderr@BookEngine@@V?$allocator@VBatchRenderr@BookEngine@@@std@@@std@@@std@@QAEAAV?$_Vector_val@U?$_Simple_types@VBatchRenderr@BookEngine@@@std@@@2@XZ
	?_Get_data@?$_Vector_alloc@U?$_Vec_base_types@VBatchRenderr@BookEngine@@V?$allocator@VBatchRenderr@BookEngine@@@std@@@std@@@std@@QBEABV?$_Vector_val@U?$_Simple_types@VBatchRenderr@BookEngine@@@std@@@2@XZ
	?_Get_data@?$_Vector_alloc@U?$_Vec_base_types@VGlyph@BookEngine@@V?$allocator@VGlyph@BookEngine@@@std@@@std@@@std@@QAEAAV?$_Vector_val@U?$_Simple_types@VGlyph@BookEngine@@@std@@@2@XZ
	?_Get_data@?$_Vector_alloc@U?$_Vec_base_types@VGlyph@BookEngine@@V?$allocator@VGlyph@BookEngine@@@std@@@std@@@std@@QBEABV?$_Vector_val@U?$_Simple_types@VGlyph@BookEngine@@@std@@@2@XZ
	?_Get_first@?$_Compressed_pair@U?$default_delete@VScreenList@BookEngine@@@std@@PAVScreenList@BookEngine@@$00@std@@QAEAAU?$default_delete@VScreenList@BookEngine@@@2@XZ
	?_Get_first@?$_Compressed_pair@U?$equal_to@I@std@@M$00@std@@QBEABU?$equal_to@I@2@XZ
	?_Get_first@?$_Compressed_pair@U?$hash@I@std@@V?$_Compressed_pair@U?$equal_to@I@std@@M$00@2@$00@std@@QBEABU?$hash@I@2@XZ
	?_Get_first@?$_Compressed_pair@U?$less@V?$basic_string@DU?$char_traits@D@std@@V?$allocator@D@2@@std@@@std@@V?$_Compressed_pair@V?$allocator@U?$_Tree_node@U?$pair@$$CBV?$basic_string@DU?$char_traits@D@std@@V?$allocator@D@2@@std@@PAUMix_Chunk@@@std@@PAX@std@@@std@@V?$_Tree_val@U?$_Tree_simple_types@U?$pair@$$CBV?$basic_string@DU?$char_traits@D@std@@V?$allocator@D@2@@std@@PAUMix_Chunk@@@std@@@std@@@2@$00@2@$00@std@@QAEAAU?$less@V?$basic_string@DU?$char_traits@D@std@@V?$allocator@D@2@@std@@@2@XZ
	?_Get_first@?$_Compressed_pair@U?$less@V?$basic_string@DU?$char_traits@D@std@@V?$allocator@D@2@@std@@@std@@V?$_Compressed_pair@V?$allocator@U?$_Tree_node@U?$pair@$$CBV?$basic_string@DU?$char_traits@D@std@@V?$allocator@D@2@@std@@PAUMix_Chunk@@@std@@PAX@std@@@std@@V?$_Tree_val@U?$_Tree_simple_types@U?$pair@$$CBV?$basic_string@DU?$char_traits@D@std@@V?$allocator@D@2@@std@@PAUMix_Chunk@@@std@@@std@@@2@$00@2@$00@std@@QBEABU?$less@V?$basic_string@DU?$char_traits@D@std@@V?$allocator@D@2@@std@@@2@XZ
	?_Get_first@?$_Compressed_pair@U?$less@V?$basic_string@DU?$char_traits@D@std@@V?$allocator@D@2@@std@@@std@@V?$_Compressed_pair@V?$allocator@U?$_Tree_node@U?$pair@$$CBV?$basic_string@DU?$char_traits@D@std@@V?$allocator@D@2@@std@@PAU_Mix_Music@@@std@@PAX@std@@@std@@V?$_Tree_val@U?$_Tree_simple_types@U?$pair@$$CBV?$basic_string@DU?$char_traits@D@std@@V?$allocator@D@2@@std@@PAU_Mix_Music@@@std@@@std@@@2@$00@2@$00@std@@QAEAAU?$less@V?$basic_string@DU?$char_traits@D@std@@V?$allocator@D@2@@std@@@2@XZ
	?_Get_first@?$_Compressed_pair@U?$less@V?$basic_string@DU?$char_traits@D@std@@V?$allocator@D@2@@std@@@std@@V?$_Compressed_pair@V?$allocator@U?$_Tree_node@U?$pair@$$CBV?$basic_string@DU?$char_traits@D@std@@V?$allocator@D@2@@std@@PAU_Mix_Music@@@std@@PAX@std@@@std@@V?$_Tree_val@U?$_Tree_simple_types@U?$pair@$$CBV?$basic_string@DU?$char_traits@D@std@@V?$allocator@D@2@@std@@PAU_Mix_Music@@@std@@@std@@@2@$00@2@$00@std@@QBEABU?$less@V?$basic_string@DU?$char_traits@D@std@@V?$allocator@D@2@@std@@@2@XZ
	?_Get_first@?$_Compressed_pair@U?$less@V?$basic_string@DU?$char_traits@D@std@@V?$allocator@D@2@@std@@@std@@V?$_Compressed_pair@V?$allocator@U?$_Tree_node@U?$pair@$$CBV?$basic_string@DU?$char_traits@D@std@@V?$allocator@D@2@@std@@UGLTexture@BookEngine@@@std@@PAX@std@@@std@@V?$_Tree_val@U?$_Tree_simple_types@U?$pair@$$CBV?$basic_string@DU?$char_traits@D@std@@V?$allocator@D@2@@std@@UGLTexture@BookEngine@@@std@@@std@@@2@$00@2@$00@std@@QAEAAU?$less@V?$basic_string@DU?$char_traits@D@std@@V?$allocator@D@2@@std@@@2@XZ
	?_Get_first@?$_Compressed_pair@U?$less@V?$basic_string@DU?$char_traits@D@std@@V?$allocator@D@2@@std@@@std@@V?$_Compressed_pair@V?$allocator@U?$_Tree_node@U?$pair@$$CBV?$basic_string@DU?$char_traits@D@std@@V?$allocator@D@2@@std@@UGLTexture@BookEngine@@@std@@PAX@std@@@std@@V?$_Tree_val@U?$_Tree_simple_types@U?$pair@$$CBV?$basic_string@DU?$char_traits@D@std@@V?$allocator@D@2@@std@@UGLTexture@BookEngine@@@std@@@std@@@2@$00@2@$00@std@@QBEABU?$less@V?$basic_string@DU?$char_traits@D@std@@V?$allocator@D@2@@std@@@2@XZ
	?_Get_first@?$_Compressed_pair@V?$allocator@D@std@@V?$_String_val@U?$_Simple_types@D@std@@@2@$00@std@@QAEAAV?$allocator@D@2@XZ
	?_Get_first@?$_Compressed_pair@V?$allocator@D@std@@V?$_String_val@U?$_Simple_types@D@std@@@2@$00@std@@QBEABV?$allocator@D@2@XZ
	?_Get_first@?$_Compressed_pair@V?$allocator@D@std@@V?$_Vector_val@U?$_Simple_types@D@std@@@2@$00@std@@QAEAAV?$allocator@D@2@XZ
	?_Get_first@?$_Compressed_pair@V?$allocator@D@std@@V?$_Vector_val@U?$_Simple_types@D@std@@@2@$00@std@@QBEABV?$allocator@D@2@XZ
	?_Get_first@?$_Compressed_pair@V?$allocator@E@std@@V?$_Vector_val@U?$_Simple_types@E@std@@@2@$00@std@@QAEAAV?$allocator@E@2@XZ
	?_Get_first@?$_Compressed_pair@V?$allocator@E@std@@V?$_Vector_val@U?$_Simple_types@E@std@@@2@$00@std@@QBEABV?$allocator@E@2@XZ
	?_Get_first@?$_Compressed_pair@V?$allocator@H@std@@V?$_Vector_val@U?$_Simple_types@H@std@@@2@$00@std@@QAEAAV?$allocator@H@2@XZ
	?_Get_first@?$_Compressed_pair@V?$allocator@H@std@@V?$_Vector_val@U?$_Simple_types@H@std@@@2@$00@std@@QBEABV?$allocator@H@2@XZ
	?_Get_first@?$_Compressed_pair@V?$allocator@I@std@@V?$_Vector_val@U?$_Simple_types@I@std@@@2@$00@std@@QAEAAV?$allocator@I@2@XZ
	?_Get_first@?$_Compressed_pair@V?$allocator@I@std@@V?$_Vector_val@U?$_Simple_types@I@std@@@2@$00@std@@QBEABV?$allocator@I@2@XZ
	?_Get_first@?$_Compressed_pair@V?$allocator@K@std@@V?$_Vector_val@U?$_Simple_types@K@std@@@2@$00@std@@QAEAAV?$allocator@K@2@XZ
	?_Get_first@?$_Compressed_pair@V?$allocator@K@std@@V?$_Vector_val@U?$_Simple_types@K@std@@@2@$00@std@@QBEABV?$allocator@K@2@XZ
	?_Get_first@?$_Compressed_pair@V?$allocator@PAVGlyph@BookEngine@@@std@@V?$_Vector_val@U?$_Simple_types@PAVGlyph@BookEngine@@@std@@@2@$00@std@@QAEAAV?$allocator@PAVGlyph@BookEngine@@@2@XZ
	?_Get_first@?$_Compressed_pair@V?$allocator@PAVGlyph@BookEngine@@@std@@V?$_Vector_val@U?$_Simple_types@PAVGlyph@BookEngine@@@std@@@2@$00@std@@QBEABV?$allocator@PAVGlyph@BookEngine@@@2@XZ
	?_Get_first@?$_Compressed_pair@V?$allocator@PAVIScreen@BookEngine@@@std@@V?$_Vector_val@U?$_Simple_types@PAVIScreen@BookEngine@@@std@@@2@$00@std@@QAEAAV?$allocator@PAVIScreen@BookEngine@@@2@XZ
	?_Get_first@?$_Compressed_pair@V?$allocator@PAVIScreen@BookEngine@@@std@@V?$_Vector_val@U?$_Simple_types@PAVIScreen@BookEngine@@@std@@@2@$00@std@@QBEABV?$allocator@PAVIScreen@BookEngine@@@2@XZ
	?_Get_first@?$_Compressed_pair@V?$allocator@PAVParticleBatch2D@BookEngine@@@std@@V?$_Vector_val@U?$_Simple_types@PAVParticleBatch2D@BookEngine@@@std@@@2@$00@std@@QAEAAV?$allocator@PAVParticleBatch2D@BookEngine@@@2@XZ
	?_Get_first@?$_Compressed_pair@V?$allocator@PAVParticleBatch2D@BookEngine@@@std@@V?$_Vector_val@U?$_Simple_types@PAVParticleBatch2D@BookEngine@@@std@@@2@$00@std@@QBEABV?$allocator@PAVParticleBatch2D@BookEngine@@@2@XZ
	?_Get_first@?$_Compressed_pair@V?$allocator@U?$_List_node@U?$pair@$$CBI_N@std@@PAX@std@@@std@@V?$_List_val@U?$_List_simple_types@U?$pair@$$CBI_N@std@@@std@@@2@$00@std@@QAEAAV?$allocator@U?$_List_node@U?$pair@$$CBI_N@std@@PAX@std@@@2@XZ
	?_Get_first@?$_Compressed_pair@V?$allocator@U?$_List_node@U?$pair@$$CBI_N@std@@PAX@std@@@std@@V?$_List_val@U?$_List_simple_types@U?$pair@$$CBI_N@std@@@std@@@2@$00@std@@QBEABV?$allocator@U?$_List_node@U?$pair@$$CBI_N@std@@PAX@std@@@2@XZ
	?_Get_first@?$_Compressed_pair@V?$allocator@U?$_Tree_node@U?$pair@$$CBV?$basic_string@DU?$char_traits@D@std@@V?$allocator@D@2@@std@@PAUMix_Chunk@@@std@@PAX@std@@@std@@V?$_Tree_val@U?$_Tree_simple_types@U?$pair@$$CBV?$basic_string@DU?$char_traits@D@std@@V?$allocator@D@2@@std@@PAUMix_Chunk@@@std@@@std@@@2@$00@std@@QAEAAV?$allocator@U?$_Tree_node@U?$pair@$$CBV?$basic_string@DU?$char_traits@D@std@@V?$allocator@D@2@@std@@PAUMix_Chunk@@@std@@PAX@std@@@2@XZ
	?_Get_first@?$_Compressed_pair@V?$allocator@U?$_Tree_node@U?$pair@$$CBV?$basic_string@DU?$char_traits@D@std@@V?$allocator@D@2@@std@@PAUMix_Chunk@@@std@@PAX@std@@@std@@V?$_Tree_val@U?$_Tree_simple_types@U?$pair@$$CBV?$basic_string@DU?$char_traits@D@std@@V?$allocator@D@2@@std@@PAUMix_Chunk@@@std@@@std@@@2@$00@std@@QBEABV?$allocator@U?$_Tree_node@U?$pair@$$CBV?$basic_string@DU?$char_traits@D@std@@V?$allocator@D@2@@std@@PAUMix_Chunk@@@std@@PAX@std@@@2@XZ
	?_Get_first@?$_Compressed_pair@V?$allocator@U?$_Tree_node@U?$pair@$$CBV?$basic_string@DU?$char_traits@D@std@@V?$allocator@D@2@@std@@PAU_Mix_Music@@@std@@PAX@std@@@std@@V?$_Tree_val@U?$_Tree_simple_types@U?$pair@$$CBV?$basic_string@DU?$char_traits@D@std@@V?$allocator@D@2@@std@@PAU_Mix_Music@@@std@@@std@@@2@$00@std@@QAEAAV?$allocator@U?$_Tree_node@U?$pair@$$CBV?$basic_string@DU?$char_traits@D@std@@V?$allocator@D@2@@std@@PAU_Mix_Music@@@std@@PAX@std@@@2@XZ
	?_Get_first@?$_Compressed_pair@V?$allocator@U?$_Tree_node@U?$pair@$$CBV?$basic_string@DU?$char_traits@D@std@@V?$allocator@D@2@@std@@PAU_Mix_Music@@@std@@PAX@std@@@std@@V?$_Tree_val@U?$_Tree_simple_types@U?$pair@$$CBV?$basic_string@DU?$char_traits@D@std@@V?$allocator@D@2@@std@@PAU_Mix_Music@@@std@@@std@@@2@$00@std@@QBEABV?$allocator@U?$_Tree_node@U?$pair@$$CBV?$basic_string@DU?$char_traits@D@std@@V?$allocator@D@2@@std@@PAU_Mix_Music@@@std@@PAX@std@@@2@XZ
	?_Get_first@?$_Compressed_pair@V?$allocator@U?$_Tree_node@U?$pair@$$CBV?$basic_string@DU?$char_traits@D@std@@V?$allocator@D@2@@std@@UGLTexture@BookEngine@@@std@@PAX@std@@@std@@V?$_Tree_val@U?$_Tree_simple_types@U?$pair@$$CBV?$basic_string@DU?$char_traits@D@std@@V?$allocator@D@2@@std@@UGLTexture@BookEngine@@@std@@@std@@@2@$00@std@@QAEAAV?$allocator@U?$_Tree_node@U?$pair@$$CBV?$basic_string@DU?$char_traits@D@std@@V?$allocator@D@2@@std@@UGLTexture@BookEngine@@@std@@PAX@std@@@2@XZ
	?_Get_first@?$_Compressed_pair@V?$allocator@U?$_Tree_node@U?$pair@$$CBV?$basic_string@DU?$char_traits@D@std@@V?$allocator@D@2@@std@@UGLTexture@BookEngine@@@std@@PAX@std@@@std@@V?$_Tree_val@U?$_Tree_simple_types@U?$pair@$$CBV?$basic_string@DU?$char_traits@D@std@@V?$allocator@D@2@@std@@UGLTexture@BookEngine@@@std@@@std@@@2@$00@std@@QBEABV?$allocator@U?$_Tree_node@U?$pair@$$CBV?$basic_string@DU?$char_traits@D@std@@V?$allocator@D@2@@std@@UGLTexture@BookEngine@@@std@@PAX@std@@@2@XZ
	?_Get_first@?$_Compressed_pair@V?$allocator@U?$tvec2@M$0A@@glm@@@std@@V?$_Vector_val@U?$_Simple_types@U?$tvec2@M$0A@@glm@@@std@@@2@$00@std@@QAEAAV?$allocator@U?$tvec2@M$0A@@glm@@@2@XZ
	?_Get_first@?$_Compressed_pair@V?$allocator@U?$tvec2@M$0A@@glm@@@std@@V?$_Vector_val@U?$_Simple_types@U?$tvec2@M$0A@@glm@@@std@@@2@$00@std@@QBEABV?$allocator@U?$tvec2@M$0A@@glm@@@2@XZ
	?_Get_first@?$_Compressed_pair@V?$allocator@U?$tvec3@M$0A@@glm@@@std@@V?$_Vector_val@U?$_Simple_types@U?$tvec3@M$0A@@glm@@@std@@@2@$00@std@@QAEAAV?$allocator@U?$tvec3@M$0A@@glm@@@2@XZ
	?_Get_first@?$_Compressed_pair@V?$allocator@U?$tvec3@M$0A@@glm@@@std@@V?$_Vector_val@U?$_Simple_types@U?$tvec3@M$0A@@glm@@@std@@@2@$00@std@@QBEABV?$allocator@U?$tvec3@M$0A@@glm@@@2@XZ
	?_Get_first@?$_Compressed_pair@V?$allocator@U?$tvec4@M$0A@@glm@@@std@@V?$_Vector_val@U?$_Simple_types@U?$tvec4@M$0A@@glm@@@std@@@2@$00@std@@QAEAAV?$allocator@U?$tvec4@M$0A@@glm@@@2@XZ
	?_Get_first@?$_Compressed_pair@V?$allocator@U?$tvec4@M$0A@@glm@@@std@@V?$_Vector_val@U?$_Simple_types@U?$tvec4@M$0A@@glm@@@std@@@2@$00@std@@QBEABV?$allocator@U?$tvec4@M$0A@@glm@@@2@XZ
	?_Get_first@?$_Compressed_pair@V?$allocator@UVertex2D@BookEngine@@@std@@V?$_Vector_val@U?$_Simple_types@UVertex2D@BookEngine@@@std@@@2@$00@std@@QAEAAV?$allocator@UVertex2D@BookEngine@@@2@XZ
	?_Get_first@?$_Compressed_pair@V?$allocator@UVertex2D@BookEngine@@@std@@V?$_Vector_val@U?$_Simple_types@UVertex2D@BookEngine@@@std@@@2@$00@std@@QBEABV?$allocator@UVertex2D@BookEngine@@@2@XZ
	?_Get_first@?$_Compressed_pair@V?$allocator@V?$_List_unchecked_iterator@V?$_List_val@U?$_List_simple_types@U?$pair@$$CBI_N@std@@@std@@@std@@@std@@@std@@V?$_Vector_val@U?$_Simple_types@V?$_List_unchecked_iterator@V?$_List_val@U?$_List_simple_types@U?$pair@$$CBI_N@std@@@std@@@std@@@std@@@std@@@2@$00@std@@QAEAAV?$allocator@V?$_List_unchecked_iterator@V?$_List_val@U?$_List_simple_types@U?$pair@$$CBI_N@std@@@std@@@std@@@std@@@2@XZ
	?_Get_first@?$_Compressed_pair@V?$allocator@V?$_List_unchecked_iterator@V?$_List_val@U?$_List_simple_types@U?$pair@$$CBI_N@std@@@std@@@std@@@std@@@std@@V?$_Vector_val@U?$_Simple_types@V?$_List_unchecked_iterator@V?$_List_val@U?$_List_simple_types@U?$pair@$$CBI_N@std@@@std@@@std@@@std@@@std@@@2@$00@std@@QBEABV?$allocator@V?$_List_unchecked_iterator@V?$_List_val@U?$_List_simple_types@U?$pair@$$CBI_N@std@@@std@@@std@@@std@@@2@XZ
	?_Get_first@?$_Compressed_pair@V?$allocator@VBatchRenderr@BookEngine@@@std@@V?$_Vector_val@U?$_Simple_types@VBatchRenderr@BookEngine@@@std@@@2@$00@std@@QAEAAV?$allocator@VBatchRenderr@BookEngine@@@2@XZ
	?_Get_first@?$_Compressed_pair@V?$allocator@VBatchRenderr@BookEngine@@@std@@V?$_Vector_val@U?$_Simple_types@VBatchRenderr@BookEngine@@@std@@@2@$00@std@@QBEABV?$allocator@VBatchRenderr@BookEngine@@@2@XZ
	?_Get_first@?$_Compressed_pair@V?$allocator@VGlyph@BookEngine@@@std@@V?$_Vector_val@U?$_Simple_types@VGlyph@BookEngine@@@std@@@2@$00@std@@QAEAAV?$allocator@VGlyph@BookEngine@@@2@XZ
	?_Get_first@?$_Compressed_pair@V?$allocator@VGlyph@BookEngine@@@std@@V?$_Vector_val@U?$_Simple_types@VGlyph@BookEngine@@@std@@@2@$00@std@@QBEABV?$allocator@VGlyph@BookEngine@@@2@XZ
	?_Get_max_bucket_size@?$_Uhash_compare@IU?$hash@I@std@@U?$equal_to@I@2@@std@@QAEAAMXZ
	?_Get_max_bucket_size@?$_Uhash_compare@IU?$hash@I@std@@U?$equal_to@I@2@@std@@QBEABMXZ
	?_Get_second@?$_Compressed_pair@U?$default_delete@VScreenList@BookEngine@@@std@@PAVScreenList@BookEngine@@$00@std@@QAEAAPAVScreenList@BookEngine@@XZ
	?_Get_second@?$_Compressed_pair@U?$default_delete@VScreenList@BookEngine@@@std@@PAVScreenList@BookEngine@@$00@std@@QBEABQAVScreenList@BookEngine@@XZ
	?_Get_second@?$_Compressed_pair@U?$equal_to@I@std@@M$00@std@@QAEAAMXZ
	?_Get_second@?$_Compressed_pair@U?$equal_to@I@std@@M$00@std@@QBEABMXZ
	?_Get_second@?$_Compressed_pair@U?$hash@I@std@@V?$_Compressed_pair@U?$equal_to@I@std@@M$00@2@$00@std@@QAEAAV?$_Compressed_pair@U?$equal_to@I@std@@M$00@2@XZ
	?_Get_second@?$_Compressed_pair@U?$hash@I@std@@V?$_Compressed_pair@U?$equal_to@I@std@@M$00@2@$00@std@@QBEABV?$_Compressed_pair@U?$equal_to@I@std@@M$00@2@XZ
	?_Get_second@?$_Compressed_pair@U?$less@V?$basic_string@DU?$char_traits@D@std@@V?$allocator@D@2@@std@@@std@@V?$_Compressed_pair@V?$allocator@U?$_Tree_node@U?$pair@$$CBV?$basic_string@DU?$char_traits@D@std@@V?$allocator@D@2@@std@@PAUMix_Chunk@@@std@@PAX@std@@@std@@V?$_Tree_val@U?$_Tree_simple_types@U?$pair@$$CBV?$basic_string@DU?$char_traits@D@std@@V?$allocator@D@2@@std@@PAUMix_Chunk@@@std@@@std@@@2@$00@2@$00@std@@QAEAAV?$_Compressed_pair@V?$allocator@U?$_Tree_node@U?$pair@$$CBV?$basic_string@DU?$char_traits@D@std@@V?$allocator@D@2@@std@@PAUMix_Chunk@@@std@@PAX@std@@@std@@V?$_Tree_val@U?$_Tree_simple_types@U?$pair@$$CBV?$basic_string@DU?$char_traits@D@std@@V?$allocator@D@2@@std@@PAUMix_Chunk@@@std@@@std@@@2@$00@2@XZ
	?_Get_second@?$_Compressed_pair@U?$less@V?$basic_string@DU?$char_traits@D@std@@V?$allocator@D@2@@std@@@std@@V?$_Compressed_pair@V?$allocator@U?$_Tree_node@U?$pair@$$CBV?$basic_string@DU?$char_traits@D@std@@V?$allocator@D@2@@std@@PAUMix_Chunk@@@std@@PAX@std@@@std@@V?$_Tree_val@U?$_Tree_simple_types@U?$pair@$$CBV?$basic_string@DU?$char_traits@D@std@@V?$allocator@D@2@@std@@PAUMix_Chunk@@@std@@@std@@@2@$00@2@$00@std@@QBEABV?$_Compressed_pair@V?$allocator@U?$_Tree_node@U?$pair@$$CBV?$basic_string@DU?$char_traits@D@std@@V?$allocator@D@2@@std@@PAUMix_Chunk@@@std@@PAX@std@@@std@@V?$_Tree_val@U?$_Tree_simple_types@U?$pair@$$CBV?$basic_string@DU?$char_traits@D@std@@V?$allocator@D@2@@std@@PAUMix_Chunk@@@std@@@std@@@2@$00@2@XZ
	?_Get_second@?$_Compressed_pair@U?$less@V?$basic_string@DU?$char_traits@D@std@@V?$allocator@D@2@@std@@@std@@V?$_Compressed_pair@V?$allocator@U?$_Tree_node@U?$pair@$$CBV?$basic_string@DU?$char_traits@D@std@@V?$allocator@D@2@@std@@PAU_Mix_Music@@@std@@PAX@std@@@std@@V?$_Tree_val@U?$_Tree_simple_types@U?$pair@$$CBV?$basic_string@DU?$char_traits@D@std@@V?$allocator@D@2@@std@@PAU_Mix_Music@@@std@@@std@@@2@$00@2@$00@std@@QAEAAV?$_Compressed_pair@V?$allocator@U?$_Tree_node@U?$pair@$$CBV?$basic_string@DU?$char_traits@D@std@@V?$allocator@D@2@@std@@PAU_Mix_Music@@@std@@PAX@std@@@std@@V?$_Tree_val@U?$_Tree_simple_types@U?$pair@$$CBV?$basic_string@DU?$char_traits@D@std@@V?$allocator@D@2@@std@@PAU_Mix_Music@@@std@@@std@@@2@$00@2@XZ
	?_Get_second@?$_Compressed_pair@U?$less@V?$basic_string@DU?$char_traits@D@std@@V?$allocator@D@2@@std@@@std@@V?$_Compressed_pair@V?$allocator@U?$_Tree_node@U?$pair@$$CBV?$basic_string@DU?$char_traits@D@std@@V?$allocator@D@2@@std@@PAU_Mix_Music@@@std@@PAX@std@@@std@@V?$_Tree_val@U?$_Tree_simple_types@U?$pair@$$CBV?$basic_string@DU?$char_traits@D@std@@V?$allocator@D@2@@std@@PAU_Mix_Music@@@std@@@std@@@2@$00@2@$00@std@@QBEABV?$_Compressed_pair@V?$allocator@U?$_Tree_node@U?$pair@$$CBV?$basic_string@DU?$char_traits@D@std@@V?$allocator@D@2@@std@@PAU_Mix_Music@@@std@@PAX@std@@@std@@V?$_Tree_val@U?$_Tree_simple_types@U?$pair@$$CBV?$basic_string@DU?$char_traits@D@std@@V?$allocator@D@2@@std@@PAU_Mix_Music@@@std@@@std@@@2@$00@2@XZ
	?_Get_second@?$_Compressed_pair@U?$less@V?$basic_string@DU?$char_traits@D@std@@V?$allocator@D@2@@std@@@std@@V?$_Compressed_pair@V?$allocator@U?$_Tree_node@U?$pair@$$CBV?$basic_string@DU?$char_traits@D@std@@V?$allocator@D@2@@std@@UGLTexture@BookEngine@@@std@@PAX@std@@@std@@V?$_Tree_val@U?$_Tree_simple_types@U?$pair@$$CBV?$basic_string@DU?$char_traits@D@std@@V?$allocator@D@2@@std@@UGLTexture@BookEngine@@@std@@@std@@@2@$00@2@$00@std@@QAEAAV?$_Compressed_pair@V?$allocator@U?$_Tree_node@U?$pair@$$CBV?$basic_string@DU?$char_traits@D@std@@V?$allocator@D@2@@std@@UGLTexture@BookEngine@@@std@@PAX@std@@@std@@V?$_Tree_val@U?$_Tree_simple_types@U?$pair@$$CBV?$basic_string@DU?$char_traits@D@std@@V?$allocator@D@2@@std@@UGLTexture@BookEngine@@@std@@@std@@@2@$00@2@XZ
	?_Get_second@?$_Compressed_pair@U?$less@V?$basic_string@DU?$char_traits@D@std@@V?$allocator@D@2@@std@@@std@@V?$_Compressed_pair@V?$allocator@U?$_Tree_node@U?$pair@$$CBV?$basic_string@DU?$char_traits@D@std@@V?$allocator@D@2@@std@@UGLTexture@BookEngine@@@std@@PAX@std@@@std@@V?$_Tree_val@U?$_Tree_simple_types@U?$pair@$$CBV?$basic_string@DU?$char_traits@D@std@@V?$allocator@D@2@@std@@UGLTexture@BookEngine@@@std@@@std@@@2@$00@2@$00@std@@QBEABV?$_Compressed_pair@V?$allocator@U?$_Tree_node@U?$pair@$$CBV?$basic_string@DU?$char_traits@D@std@@V?$allocator@D@2@@std@@UGLTexture@BookEngine@@@std@@PAX@std@@@std@@V?$_Tree_val@U?$_Tree_simple_types@U?$pair@$$CBV?$basic_string@DU?$char_traits@D@std@@V?$allocator@D@2@@std@@UGLTexture@BookEngine@@@std@@@std@@@2@$00@2@XZ
	?_Get_second@?$_Compressed_pair@V?$allocator@D@std@@V?$_String_val@U?$_Simple_types@D@std@@@2@$00@std@@QAEAAV?$_String_val@U?$_Simple_types@D@std@@@2@XZ
	?_Get_second@?$_Compressed_pair@V?$allocator@D@std@@V?$_String_val@U?$_Simple_types@D@std@@@2@$00@std@@QBEABV?$_String_val@U?$_Simple_types@D@std@@@2@XZ
	?_Get_second@?$_Compressed_pair@V?$allocator@D@std@@V?$_Vector_val@U?$_Simple_types@D@std@@@2@$00@std@@QAEAAV?$_Vector_val@U?$_Simple_types@D@std@@@2@XZ
	?_Get_second@?$_Compressed_pair@V?$allocator@D@std@@V?$_Vector_val@U?$_Simple_types@D@std@@@2@$00@std@@QBEABV?$_Vector_val@U?$_Simple_types@D@std@@@2@XZ
	?_Get_second@?$_Compressed_pair@V?$allocator@E@std@@V?$_Vector_val@U?$_Simple_types@E@std@@@2@$00@std@@QAEAAV?$_Vector_val@U?$_Simple_types@E@std@@@2@XZ
	?_Get_second@?$_Compressed_pair@V?$allocator@E@std@@V?$_Vector_val@U?$_Simple_types@E@std@@@2@$00@std@@QBEABV?$_Vector_val@U?$_Simple_types@E@std@@@2@XZ
	?_Get_second@?$_Compressed_pair@V?$allocator@H@std@@V?$_Vector_val@U?$_Simple_types@H@std@@@2@$00@std@@QAEAAV?$_Vector_val@U?$_Simple_types@H@std@@@2@XZ
	?_Get_second@?$_Compressed_pair@V?$allocator@H@std@@V?$_Vector_val@U?$_Simple_types@H@std@@@2@$00@std@@QBEABV?$_Vector_val@U?$_Simple_types@H@std@@@2@XZ
	?_Get_second@?$_Compressed_pair@V?$allocator@I@std@@V?$_Vector_val@U?$_Simple_types@I@std@@@2@$00@std@@QAEAAV?$_Vector_val@U?$_Simple_types@I@std@@@2@XZ
	?_Get_second@?$_Compressed_pair@V?$allocator@I@std@@V?$_Vector_val@U?$_Simple_types@I@std@@@2@$00@std@@QBEABV?$_Vector_val@U?$_Simple_types@I@std@@@2@XZ
	?_Get_second@?$_Compressed_pair@V?$allocator@K@std@@V?$_Vector_val@U?$_Simple_types@K@std@@@2@$00@std@@QAEAAV?$_Vector_val@U?$_Simple_types@K@std@@@2@XZ
	?_Get_second@?$_Compressed_pair@V?$allocator@K@std@@V?$_Vector_val@U?$_Simple_types@K@std@@@2@$00@std@@QBEABV?$_Vector_val@U?$_Simple_types@K@std@@@2@XZ
	?_Get_second@?$_Compressed_pair@V?$allocator@PAVGlyph@BookEngine@@@std@@V?$_Vector_val@U?$_Simple_types@PAVGlyph@BookEngine@@@std@@@2@$00@std@@QAEAAV?$_Vector_val@U?$_Simple_types@PAVGlyph@BookEngine@@@std@@@2@XZ
	?_Get_second@?$_Compressed_pair@V?$allocator@PAVGlyph@BookEngine@@@std@@V?$_Vector_val@U?$_Simple_types@PAVGlyph@BookEngine@@@std@@@2@$00@std@@QBEABV?$_Vector_val@U?$_Simple_types@PAVGlyph@BookEngine@@@std@@@2@XZ
	?_Get_second@?$_Compressed_pair@V?$allocator@PAVIScreen@BookEngine@@@std@@V?$_Vector_val@U?$_Simple_types@PAVIScreen@BookEngine@@@std@@@2@$00@std@@QAEAAV?$_Vector_val@U?$_Simple_types@PAVIScreen@BookEngine@@@std@@@2@XZ
	?_Get_second@?$_Compressed_pair@V?$allocator@PAVIScreen@BookEngine@@@std@@V?$_Vector_val@U?$_Simple_types@PAVIScreen@BookEngine@@@std@@@2@$00@std@@QBEABV?$_Vector_val@U?$_Simple_types@PAVIScreen@BookEngine@@@std@@@2@XZ
	?_Get_second@?$_Compressed_pair@V?$allocator@PAVParticleBatch2D@BookEngine@@@std@@V?$_Vector_val@U?$_Simple_types@PAVParticleBatch2D@BookEngine@@@std@@@2@$00@std@@QAEAAV?$_Vector_val@U?$_Simple_types@PAVParticleBatch2D@BookEngine@@@std@@@2@XZ
	?_Get_second@?$_Compressed_pair@V?$allocator@PAVParticleBatch2D@BookEngine@@@std@@V?$_Vector_val@U?$_Simple_types@PAVParticleBatch2D@BookEngine@@@std@@@2@$00@std@@QBEABV?$_Vector_val@U?$_Simple_types@PAVParticleBatch2D@BookEngine@@@std@@@2@XZ
	?_Get_second@?$_Compressed_pair@V?$allocator@U?$_List_node@U?$pair@$$CBI_N@std@@PAX@std@@@std@@V?$_List_val@U?$_List_simple_types@U?$pair@$$CBI_N@std@@@std@@@2@$00@std@@QAEAAV?$_List_val@U?$_List_simple_types@U?$pair@$$CBI_N@std@@@std@@@2@XZ
	?_Get_second@?$_Compressed_pair@V?$allocator@U?$_List_node@U?$pair@$$CBI_N@std@@PAX@std@@@std@@V?$_List_val@U?$_List_simple_types@U?$pair@$$CBI_N@std@@@std@@@2@$00@std@@QBEABV?$_List_val@U?$_List_simple_types@U?$pair@$$CBI_N@std@@@std@@@2@XZ
	?_Get_second@?$_Compressed_pair@V?$allocator@U?$_Tree_node@U?$pair@$$CBV?$basic_string@DU?$char_traits@D@std@@V?$allocator@D@2@@std@@PAUMix_Chunk@@@std@@PAX@std@@@std@@V?$_Tree_val@U?$_Tree_simple_types@U?$pair@$$CBV?$basic_string@DU?$char_traits@D@std@@V?$allocator@D@2@@std@@PAUMix_Chunk@@@std@@@std@@@2@$00@std@@QAEAAV?$_Tree_val@U?$_Tree_simple_types@U?$pair@$$CBV?$basic_string@DU?$char_traits@D@std@@V?$allocator@D@2@@std@@PAUMix_Chunk@@@std@@@std@@@2@XZ
	?_Get_second@?$_Compressed_pair@V?$allocator@U?$_Tree_node@U?$pair@$$CBV?$basic_string@DU?$char_traits@D@std@@V?$allocator@D@2@@std@@PAUMix_Chunk@@@std@@PAX@std@@@std@@V?$_Tree_val@U?$_Tree_simple_types@U?$pair@$$CBV?$basic_string@DU?$char_traits@D@std@@V?$allocator@D@2@@std@@PAUMix_Chunk@@@std@@@std@@@2@$00@std@@QBEABV?$_Tree_val@U?$_Tree_simple_types@U?$pair@$$CBV?$basic_string@DU?$char_traits@D@std@@V?$allocator@D@2@@std@@PAUMix_Chunk@@@std@@@std@@@2@XZ
	?_Get_second@?$_Compressed_pair@V?$allocator@U?$_Tree_node@U?$pair@$$CBV?$basic_string@DU?$char_traits@D@std@@V?$allocator@D@2@@std@@PAU_Mix_Music@@@std@@PAX@std@@@std@@V?$_Tree_val@U?$_Tree_simple_types@U?$pair@$$CBV?$basic_string@DU?$char_traits@D@std@@V?$allocator@D@2@@std@@PAU_Mix_Music@@@std@@@std@@@2@$00@std@@QAEAAV?$_Tree_val@U?$_Tree_simple_types@U?$pair@$$CBV?$basic_string@DU?$char_traits@D@std@@V?$allocator@D@2@@std@@PAU_Mix_Music@@@std@@@std@@@2@XZ
	?_Get_second@?$_Compressed_pair@V?$allocator@U?$_Tree_node@U?$pair@$$CBV?$basic_string@DU?$char_traits@D@std@@V?$allocator@D@2@@std@@PAU_Mix_Music@@@std@@PAX@std@@@std@@V?$_Tree_val@U?$_Tree_simple_types@U?$pair@$$CBV?$basic_string@DU?$char_traits@D@std@@V?$allocator@D@2@@std@@PAU_Mix_Music@@@std@@@std@@@2@$00@std@@QBEABV?$_Tree_val@U?$_Tree_simple_types@U?$pair@$$CBV?$basic_string@DU?$char_traits@D@std@@V?$allocator@D@2@@std@@PAU_Mix_Music@@@std@@@std@@@2@XZ
	?_Get_second@?$_Compressed_pair@V?$allocator@U?$_Tree_node@U?$pair@$$CBV?$basic_string@DU?$char_traits@D@std@@V?$allocator@D@2@@std@@UGLTexture@BookEngine@@@std@@PAX@std@@@std@@V?$_Tree_val@U?$_Tree_simple_types@U?$pair@$$CBV?$basic_string@DU?$char_traits@D@std@@V?$allocator@D@2@@std@@UGLTexture@BookEngine@@@std@@@std@@@2@$00@std@@QAEAAV?$_Tree_val@U?$_Tree_simple_types@U?$pair@$$CBV?$basic_string@DU?$char_traits@D@std@@V?$allocator@D@2@@std@@UGLTexture@BookEngine@@@std@@@std@@@2@XZ
	?_Get_second@?$_Compressed_pair@V?$allocator@U?$_Tree_node@U?$pair@$$CBV?$basic_string@DU?$char_traits@D@std@@V?$allocator@D@2@@std@@UGLTexture@BookEngine@@@std@@PAX@std@@@std@@V?$_Tree_val@U?$_Tree_simple_types@U?$pair@$$CBV?$basic_string@DU?$char_traits@D@std@@V?$allocator@D@2@@std@@UGLTexture@BookEngine@@@std@@@std@@@2@$00@std@@QBEABV?$_Tree_val@U?$_Tree_simple_types@U?$pair@$$CBV?$basic_string@DU?$char_traits@D@std@@V?$allocator@D@2@@std@@UGLTexture@BookEngine@@@std@@@std@@@2@XZ
	?_Get_second@?$_Compressed_pair@V?$allocator@U?$tvec2@M$0A@@glm@@@std@@V?$_Vector_val@U?$_Simple_types@U?$tvec2@M$0A@@glm@@@std@@@2@$00@std@@QAEAAV?$_Vector_val@U?$_Simple_types@U?$tvec2@M$0A@@glm@@@std@@@2@XZ
	?_Get_second@?$_Compressed_pair@V?$allocator@U?$tvec2@M$0A@@glm@@@std@@V?$_Vector_val@U?$_Simple_types@U?$tvec2@M$0A@@glm@@@std@@@2@$00@std@@QBEABV?$_Vector_val@U?$_Simple_types@U?$tvec2@M$0A@@glm@@@std@@@2@XZ
	?_Get_second@?$_Compressed_pair@V?$allocator@U?$tvec3@M$0A@@glm@@@std@@V?$_Vector_val@U?$_Simple_types@U?$tvec3@M$0A@@glm@@@std@@@2@$00@std@@QAEAAV?$_Vector_val@U?$_Simple_types@U?$tvec3@M$0A@@glm@@@std@@@2@XZ
	?_Get_second@?$_Compressed_pair@V?$allocator@U?$tvec3@M$0A@@glm@@@std@@V?$_Vector_val@U?$_Simple_types@U?$tvec3@M$0A@@glm@@@std@@@2@$00@std@@QBEABV?$_Vector_val@U?$_Simple_types@U?$tvec3@M$0A@@glm@@@std@@@2@XZ
	?_Get_second@?$_Compressed_pair@V?$allocator@U?$tvec4@M$0A@@glm@@@std@@V?$_Vector_val@U?$_Simple_types@U?$tvec4@M$0A@@glm@@@std@@@2@$00@std@@QAEAAV?$_Vector_val@U?$_Simple_types@U?$tvec4@M$0A@@glm@@@std@@@2@XZ
	?_Get_second@?$_Compressed_pair@V?$allocator@U?$tvec4@M$0A@@glm@@@std@@V?$_Vector_val@U?$_Simple_types@U?$tvec4@M$0A@@glm@@@std@@@2@$00@std@@QBEABV?$_Vector_val@U?$_Simple_types@U?$tvec4@M$0A@@glm@@@std@@@2@XZ
	?_Get_second@?$_Compressed_pair@V?$allocator@UVertex2D@BookEngine@@@std@@V?$_Vector_val@U?$_Simple_types@UVertex2D@BookEngine@@@std@@@2@$00@std@@QAEAAV?$_Vector_val@U?$_Simple_types@UVertex2D@BookEngine@@@std@@@2@XZ
	?_Get_second@?$_Compressed_pair@V?$allocator@UVertex2D@BookEngine@@@std@@V?$_Vector_val@U?$_Simple_types@UVertex2D@BookEngine@@@std@@@2@$00@std@@QBEABV?$_Vector_val@U?$_Simple_types@UVertex2D@BookEngine@@@std@@@2@XZ
	?_Get_second@?$_Compressed_pair@V?$allocator@V?$_List_unchecked_iterator@V?$_List_val@U?$_List_simple_types@U?$pair@$$CBI_N@std@@@std@@@std@@@std@@@std@@V?$_Vector_val@U?$_Simple_types@V?$_List_unchecked_iterator@V?$_List_val@U?$_List_simple_types@U?$pair@$$CBI_N@std@@@std@@@std@@@std@@@std@@@2@$00@std@@QAEAAV?$_Vector_val@U?$_Simple_types@V?$_List_unchecked_iterator@V?$_List_val@U?$_List_simple_types@U?$pair@$$CBI_N@std@@@std@@@std@@@std@@@std@@@2@XZ
	?_Get_second@?$_Compressed_pair@V?$allocator@V?$_List_unchecked_iterator@V?$_List_val@U?$_List_simple_types@U?$pair@$$CBI_N@std@@@std@@@std@@@std@@@std@@V?$_Vector_val@U?$_Simple_types@V?$_List_unchecked_iterator@V?$_List_val@U?$_List_simple_types@U?$pair@$$CBI_N@std@@@std@@@std@@@std@@@std@@@2@$00@std@@QBEABV?$_Vector_val@U?$_Simple_types@V?$_List_unchecked_iterator@V?$_List_val@U?$_List_simple_types@U?$pair@$$CBI_N@std@@@std@@@std@@@std@@@std@@@2@XZ
	?_Get_second@?$_Compressed_pair@V?$allocator@VBatchRenderr@BookEngine@@@std@@V?$_Vector_val@U?$_Simple_types@VBatchRenderr@BookEngine@@@std@@@2@$00@std@@QAEAAV?$_Vector_val@U?$_Simple_types@VBatchRenderr@BookEngine@@@std@@@2@XZ
	?_Get_second@?$_Compressed_pair@V?$allocator@VBatchRenderr@BookEngine@@@std@@V?$_Vector_val@U?$_Simple_types@VBatchRenderr@BookEngine@@@std@@@2@$00@std@@QBEABV?$_Vector_val@U?$_Simple_types@VBatchRenderr@BookEngine@@@std@@@2@XZ
	?_Get_second@?$_Compressed_pair@V?$allocator@VGlyph@BookEngine@@@std@@V?$_Vector_val@U?$_Simple_types@VGlyph@BookEngine@@@std@@@2@$00@std@@QAEAAV?$_Vector_val@U?$_Simple_types@VGlyph@BookEngine@@@std@@@2@XZ
	?_Get_second@?$_Compressed_pair@V?$allocator@VGlyph@BookEngine@@@std@@V?$_Vector_val@U?$_Simple_types@VGlyph@BookEngine@@@std@@@2@$00@std@@QBEABV?$_Vector_val@U?$_Simple_types@VGlyph@BookEngine@@@std@@@2@XZ
	?_Getal@?$_List_alloc@U?$_List_base_types@U?$pair@$$CBI_N@std@@V?$allocator@U?$pair@$$CBI_N@std@@@2@@std@@@std@@QAEAAV?$allocator@U?$_List_node@U?$pair@$$CBI_N@std@@PAX@std@@@2@XZ
	?_Getal@?$_List_alloc@U?$_List_base_types@U?$pair@$$CBI_N@std@@V?$allocator@U?$pair@$$CBI_N@std@@@2@@std@@@std@@QBEABV?$allocator@U?$_List_node@U?$pair@$$CBI_N@std@@PAX@std@@@2@XZ
	?_Getal@?$_String_alloc@U?$_String_base_types@DV?$allocator@D@std@@@std@@@std@@QAEAAV?$allocator@D@2@XZ
	?_Getal@?$_String_alloc@U?$_String_base_types@DV?$allocator@D@std@@@std@@@std@@QBEABV?$allocator@D@2@XZ
	?_Getal@?$_Tree_comp_alloc@V?$_Tmap_traits@V?$basic_string@DU?$char_traits@D@std@@V?$allocator@D@2@@std@@PAUMix_Chunk@@U?$less@V?$basic_string@DU?$char_traits@D@std@@V?$allocator@D@2@@std@@@2@V?$allocator@U?$pair@$$CBV?$basic_string@DU?$char_traits@D@std@@V?$allocator@D@2@@std@@PAUMix_Chunk@@@std@@@2@$0A@@std@@@std@@QAEAAV?$allocator@U?$_Tree_node@U?$pair@$$CBV?$basic_string@DU?$char_traits@D@std@@V?$allocator@D@2@@std@@PAUMix_Chunk@@@std@@PAX@std@@@2@XZ
	?_Getal@?$_Tree_comp_alloc@V?$_Tmap_traits@V?$basic_string@DU?$char_traits@D@std@@V?$allocator@D@2@@std@@PAUMix_Chunk@@U?$less@V?$basic_string@DU?$char_traits@D@std@@V?$allocator@D@2@@std@@@2@V?$allocator@U?$pair@$$CBV?$basic_string@DU?$char_traits@D@std@@V?$allocator@D@2@@std@@PAUMix_Chunk@@@std@@@2@$0A@@std@@@std@@QBEABV?$allocator@U?$_Tree_node@U?$pair@$$CBV?$basic_string@DU?$char_traits@D@std@@V?$allocator@D@2@@std@@PAUMix_Chunk@@@std@@PAX@std@@@2@XZ
	?_Getal@?$_Tree_comp_alloc@V?$_Tmap_traits@V?$basic_string@DU?$char_traits@D@std@@V?$allocator@D@2@@std@@PAU_Mix_Music@@U?$less@V?$basic_string@DU?$char_traits@D@std@@V?$allocator@D@2@@std@@@2@V?$allocator@U?$pair@$$CBV?$basic_string@DU?$char_traits@D@std@@V?$allocator@D@2@@std@@PAU_Mix_Music@@@std@@@2@$0A@@std@@@std@@QAEAAV?$allocator@U?$_Tree_node@U?$pair@$$CBV?$basic_string@DU?$char_traits@D@std@@V?$allocator@D@2@@std@@PAU_Mix_Music@@@std@@PAX@std@@@2@XZ
	?_Getal@?$_Tree_comp_alloc@V?$_Tmap_traits@V?$basic_string@DU?$char_traits@D@std@@V?$allocator@D@2@@std@@PAU_Mix_Music@@U?$less@V?$basic_string@DU?$char_traits@D@std@@V?$allocator@D@2@@std@@@2@V?$allocator@U?$pair@$$CBV?$basic_string@DU?$char_traits@D@std@@V?$allocator@D@2@@std@@PAU_Mix_Music@@@std@@@2@$0A@@std@@@std@@QBEABV?$allocator@U?$_Tree_node@U?$pair@$$CBV?$basic_string@DU?$char_traits@D@std@@V?$allocator@D@2@@std@@PAU_Mix_Music@@@std@@PAX@std@@@2@XZ
	?_Getal@?$_Tree_comp_alloc@V?$_Tmap_traits@V?$basic_string@DU?$char_traits@D@std@@V?$allocator@D@2@@std@@UGLTexture@BookEngine@@U?$less@V?$basic_string@DU?$char_traits@D@std@@V?$allocator@D@2@@std@@@2@V?$allocator@U?$pair@$$CBV?$basic_string@DU?$char_traits@D@std@@V?$allocator@D@2@@std@@UGLTexture@BookEngine@@@std@@@2@$0A@@std@@@std@@QAEAAV?$allocator@U?$_Tree_node@U?$pair@$$CBV?$basic_string@DU?$char_traits@D@std@@V?$allocator@D@2@@std@@UGLTexture@BookEngine@@@std@@PAX@std@@@2@XZ
	?_Getal@?$_Tree_comp_alloc@V?$_Tmap_traits@V?$basic_string@DU?$char_traits@D@std@@V?$allocator@D@2@@std@@UGLTexture@BookEngine@@U?$less@V?$basic_string@DU?$char_traits@D@std@@V?$allocator@D@2@@std@@@2@V?$allocator@U?$pair@$$CBV?$basic_string@DU?$char_traits@D@std@@V?$allocator@D@2@@std@@UGLTexture@BookEngine@@@std@@@2@$0A@@std@@@std@@QBEABV?$allocator@U?$_Tree_node@U?$pair@$$CBV?$basic_string@DU?$char_traits@D@std@@V?$allocator@D@2@@std@@UGLTexture@BookEngine@@@std@@PAX@std@@@2@XZ
	?_Getal@?$_Vector_alloc@U?$_Vec_base_types@DV?$allocator@D@std@@@std@@@std@@QAEAAV?$allocator@D@2@XZ
	?_Getal@?$_Vector_alloc@U?$_Vec_base_types@DV?$allocator@D@std@@@std@@@std@@QBEABV?$allocator@D@2@XZ
	?_Getal@?$_Vector_alloc@U?$_Vec_base_types@EV?$allocator@E@std@@@std@@@std@@QAEAAV?$allocator@E@2@XZ
	?_Getal@?$_Vector_alloc@U?$_Vec_base_types@EV?$allocator@E@std@@@std@@@std@@QBEABV?$allocator@E@2@XZ
	?_Getal@?$_Vector_alloc@U?$_Vec_base_types@HV?$allocator@H@std@@@std@@@std@@QAEAAV?$allocator@H@2@XZ
	?_Getal@?$_Vector_alloc@U?$_Vec_base_types@HV?$allocator@H@std@@@std@@@std@@QBEABV?$allocator@H@2@XZ
	?_Getal@?$_Vector_alloc@U?$_Vec_base_types@IV?$allocator@I@std@@@std@@@std@@QAEAAV?$allocator@I@2@XZ
	?_Getal@?$_Vector_alloc@U?$_Vec_base_types@IV?$allocator@I@std@@@std@@@std@@QBEABV?$allocator@I@2@XZ
	?_Getal@?$_Vector_alloc@U?$_Vec_base_types@KV?$allocator@K@std@@@std@@@std@@QAEAAV?$allocator@K@2@XZ
	?_Getal@?$_Vector_alloc@U?$_Vec_base_types@KV?$allocator@K@std@@@std@@@std@@QBEABV?$allocator@K@2@XZ
	?_Getal@?$_Vector_alloc@U?$_Vec_base_types@PAVGlyph@BookEngine@@V?$allocator@PAVGlyph@BookEngine@@@std@@@std@@@std@@QAEAAV?$allocator@PAVGlyph@BookEngine@@@2@XZ
	?_Getal@?$_Vector_alloc@U?$_Vec_base_types@PAVGlyph@BookEngine@@V?$allocator@PAVGlyph@BookEngine@@@std@@@std@@@std@@QBEABV?$allocator@PAVGlyph@BookEngine@@@2@XZ
	?_Getal@?$_Vector_alloc@U?$_Vec_base_types@PAVIScreen@BookEngine@@V?$allocator@PAVIScreen@BookEngine@@@std@@@std@@@std@@QAEAAV?$allocator@PAVIScreen@BookEngine@@@2@XZ
	?_Getal@?$_Vector_alloc@U?$_Vec_base_types@PAVIScreen@BookEngine@@V?$allocator@PAVIScreen@BookEngine@@@std@@@std@@@std@@QBEABV?$allocator@PAVIScreen@BookEngine@@@2@XZ
	?_Getal@?$_Vector_alloc@U?$_Vec_base_types@PAVParticleBatch2D@BookEngine@@V?$allocator@PAVParticleBatch2D@BookEngine@@@std@@@std@@@std@@QAEAAV?$allocator@PAVParticleBatch2D@BookEngine@@@2@XZ
	?_Getal@?$_Vector_alloc@U?$_Vec_base_types@PAVParticleBatch2D@BookEngine@@V?$allocator@PAVParticleBatch2D@BookEngine@@@std@@@std@@@std@@QBEABV?$allocator@PAVParticleBatch2D@BookEngine@@@2@XZ
	?_Getal@?$_Vector_alloc@U?$_Vec_base_types@U?$tvec2@M$0A@@glm@@V?$allocator@U?$tvec2@M$0A@@glm@@@std@@@std@@@std@@QAEAAV?$allocator@U?$tvec2@M$0A@@glm@@@2@XZ
	?_Getal@?$_Vector_alloc@U?$_Vec_base_types@U?$tvec2@M$0A@@glm@@V?$allocator@U?$tvec2@M$0A@@glm@@@std@@@std@@@std@@QBEABV?$allocator@U?$tvec2@M$0A@@glm@@@2@XZ
	?_Getal@?$_Vector_alloc@U?$_Vec_base_types@U?$tvec3@M$0A@@glm@@V?$allocator@U?$tvec3@M$0A@@glm@@@std@@@std@@@std@@QAEAAV?$allocator@U?$tvec3@M$0A@@glm@@@2@XZ
	?_Getal@?$_Vector_alloc@U?$_Vec_base_types@U?$tvec3@M$0A@@glm@@V?$allocator@U?$tvec3@M$0A@@glm@@@std@@@std@@@std@@QBEABV?$allocator@U?$tvec3@M$0A@@glm@@@2@XZ
	?_Getal@?$_Vector_alloc@U?$_Vec_base_types@U?$tvec4@M$0A@@glm@@V?$allocator@U?$tvec4@M$0A@@glm@@@std@@@std@@@std@@QAEAAV?$allocator@U?$tvec4@M$0A@@glm@@@2@XZ
	?_Getal@?$_Vector_alloc@U?$_Vec_base_types@U?$tvec4@M$0A@@glm@@V?$allocator@U?$tvec4@M$0A@@glm@@@std@@@std@@@std@@QBEABV?$allocator@U?$tvec4@M$0A@@glm@@@2@XZ
	?_Getal@?$_Vector_alloc@U?$_Vec_base_types@UVertex2D@BookEngine@@V?$allocator@UVertex2D@BookEngine@@@std@@@std@@@std@@QAEAAV?$allocator@UVertex2D@BookEngine@@@2@XZ
	?_Getal@?$_Vector_alloc@U?$_Vec_base_types@UVertex2D@BookEngine@@V?$allocator@UVertex2D@BookEngine@@@std@@@std@@@std@@QBEABV?$allocator@UVertex2D@BookEngine@@@2@XZ
	?_Getal@?$_Vector_alloc@U?$_Vec_base_types@V?$_List_unchecked_iterator@V?$_List_val@U?$_List_simple_types@U?$pair@$$CBI_N@std@@@std@@@std@@@std@@V?$allocator@V?$_List_unchecked_iterator@V?$_List_val@U?$_List_simple_types@U?$pair@$$CBI_N@std@@@std@@@std@@@std@@@2@@std@@@std@@QAEAAV?$allocator@V?$_List_unchecked_iterator@V?$_List_val@U?$_List_simple_types@U?$pair@$$CBI_N@std@@@std@@@std@@@std@@@2@XZ
	?_Getal@?$_Vector_alloc@U?$_Vec_base_types@V?$_List_unchecked_iterator@V?$_List_val@U?$_List_simple_types@U?$pair@$$CBI_N@std@@@std@@@std@@@std@@V?$allocator@V?$_List_unchecked_iterator@V?$_List_val@U?$_List_simple_types@U?$pair@$$CBI_N@std@@@std@@@std@@@std@@@2@@std@@@std@@QBEABV?$allocator@V?$_List_unchecked_iterator@V?$_List_val@U?$_List_simple_types@U?$pair@$$CBI_N@std@@@std@@@std@@@std@@@2@XZ
	?_Getal@?$_Vector_alloc@U?$_Vec_base_types@VBatchRenderr@BookEngine@@V?$allocator@VBatchRenderr@BookEngine@@@std@@@std@@@std@@QAEAAV?$allocator@VBatchRenderr@BookEngine@@@2@XZ
	?_Getal@?$_Vector_alloc@U?$_Vec_base_types@VBatchRenderr@BookEngine@@V?$allocator@VBatchRenderr@BookEngine@@@std@@@std@@@std@@QBEABV?$allocator@VBatchRenderr@BookEngine@@@2@XZ
	?_Getal@?$_Vector_alloc@U?$_Vec_base_types@VGlyph@BookEngine@@V?$allocator@VGlyph@BookEngine@@@std@@@std@@@std@@QAEAAV?$allocator@VGlyph@BookEngine@@@2@XZ
	?_Getal@?$_Vector_alloc@U?$_Vec_base_types@VGlyph@BookEngine@@V?$allocator@VGlyph@BookEngine@@@std@@@std@@@std@@QBEABV?$allocator@VGlyph@BookEngine@@@2@XZ
	?_Getcomp@?$_Tree_comp_alloc@V?$_Tmap_traits@V?$basic_string@DU?$char_traits@D@std@@V?$allocator@D@2@@std@@PAUMix_Chunk@@U?$less@V?$basic_string@DU?$char_traits@D@std@@V?$allocator@D@2@@std@@@2@V?$allocator@U?$pair@$$CBV?$basic_string@DU?$char_traits@D@std@@V?$allocator@D@2@@std@@PAUMix_Chunk@@@std@@@2@$0A@@std@@@std@@QAEAAU?$less@V?$basic_string@DU?$char_traits@D@std@@V?$allocator@D@2@@std@@@2@XZ
	?_Getcomp@?$_Tree_comp_alloc@V?$_Tmap_traits@V?$basic_string@DU?$char_traits@D@std@@V?$allocator@D@2@@std@@PAUMix_Chunk@@U?$less@V?$basic_string@DU?$char_traits@D@std@@V?$allocator@D@2@@std@@@2@V?$allocator@U?$pair@$$CBV?$basic_string@DU?$char_traits@D@std@@V?$allocator@D@2@@std@@PAUMix_Chunk@@@std@@@2@$0A@@std@@@std@@QBEABU?$less@V?$basic_string@DU?$char_traits@D@std@@V?$allocator@D@2@@std@@@2@XZ
	?_Getcomp@?$_Tree_comp_alloc@V?$_Tmap_traits@V?$basic_string@DU?$char_traits@D@std@@V?$allocator@D@2@@std@@PAU_Mix_Music@@U?$less@V?$basic_string@DU?$char_traits@D@std@@V?$allocator@D@2@@std@@@2@V?$allocator@U?$pair@$$CBV?$basic_string@DU?$char_traits@D@std@@V?$allocator@D@2@@std@@PAU_Mix_Music@@@std@@@2@$0A@@std@@@std@@QAEAAU?$less@V?$basic_string@DU?$char_traits@D@std@@V?$allocator@D@2@@std@@@2@XZ
	?_Getcomp@?$_Tree_comp_alloc@V?$_Tmap_traits@V?$basic_string@DU?$char_traits@D@std@@V?$allocator@D@2@@std@@PAU_Mix_Music@@U?$less@V?$basic_string@DU?$char_traits@D@std@@V?$allocator@D@2@@std@@@2@V?$allocator@U?$pair@$$CBV?$basic_string@DU?$char_traits@D@std@@V?$allocator@D@2@@std@@PAU_Mix_Music@@@std@@@2@$0A@@std@@@std@@QBEABU?$less@V?$basic_string@DU?$char_traits@D@std@@V?$allocator@D@2@@std@@@2@XZ
	?_Getcomp@?$_Tree_comp_alloc@V?$_Tmap_traits@V?$basic_string@DU?$char_traits@D@std@@V?$allocator@D@2@@std@@UGLTexture@BookEngine@@U?$less@V?$basic_string@DU?$char_traits@D@std@@V?$allocator@D@2@@std@@@2@V?$allocator@U?$pair@$$CBV?$basic_string@DU?$char_traits@D@std@@V?$allocator@D@2@@std@@UGLTexture@BookEngine@@@std@@@2@$0A@@std@@@std@@QAEAAU?$less@V?$basic_string@DU?$char_traits@D@std@@V?$allocator@D@2@@std@@@2@XZ
	?_Getcomp@?$_Tree_comp_alloc@V?$_Tmap_traits@V?$basic_string@DU?$char_traits@D@std@@V?$allocator@D@2@@std@@UGLTexture@BookEngine@@U?$less@V?$basic_string@DU?$char_traits@D@std@@V?$allocator@D@2@@std@@@2@V?$allocator@U?$pair@$$CBV?$basic_string@DU?$char_traits@D@std@@V?$allocator@D@2@@std@@UGLTexture@BookEngine@@@std@@@2@$0A@@std@@@std@@QBEABU?$less@V?$basic_string@DU?$char_traits@D@std@@V?$allocator@D@2@@std@@@2@XZ
	?_Getcont@_Iterator_base12@std@@QBEPBU_Container_base12@2@XZ
	?_Getfacet@locale@std@@QBEPBVfacet@12@I@Z
	?_Gethash@?$_Uhash_compare@IU?$hash@I@std@@U?$equal_to@I@2@@std@@QBEABU?$hash@I@2@XZ
	?_Getimpl@?$_Func_class@XAAVParticle2D@BookEngine@@M@std@@ABEPAV?$_Func_base@XAAVParticle2D@BookEngine@@M@2@XZ
	?_Getkeyeq@?$_Uhash_compare@IU?$hash@I@std@@U?$equal_to@I@2@@std@@QBEABU?$equal_to@I@2@XZ
	?_Getpfirst@?$_List_alloc@U?$_List_base_types@U?$pair@$$CBI_N@std@@V?$allocator@U?$pair@$$CBI_N@std@@@2@@std@@@std@@QBEPAPAU_Iterator_base12@2@XZ
	?_Getpfirst@?$_Tree_comp_alloc@V?$_Tmap_traits@V?$basic_string@DU?$char_traits@D@std@@V?$allocator@D@2@@std@@PAUMix_Chunk@@U?$less@V?$basic_string@DU?$char_traits@D@std@@V?$allocator@D@2@@std@@@2@V?$allocator@U?$pair@$$CBV?$basic_string@DU?$char_traits@D@std@@V?$allocator@D@2@@std@@PAUMix_Chunk@@@std@@@2@$0A@@std@@@std@@QBEPAPAU_Iterator_base12@2@XZ
	?_Getpfirst@?$_Tree_comp_alloc@V?$_Tmap_traits@V?$basic_string@DU?$char_traits@D@std@@V?$allocator@D@2@@std@@PAU_Mix_Music@@U?$less@V?$basic_string@DU?$char_traits@D@std@@V?$allocator@D@2@@std@@@2@V?$allocator@U?$pair@$$CBV?$basic_string@DU?$char_traits@D@std@@V?$allocator@D@2@@std@@PAU_Mix_Music@@@std@@@2@$0A@@std@@@std@@QBEPAPAU_Iterator_base12@2@XZ
	?_Getpfirst@?$_Tree_comp_alloc@V?$_Tmap_traits@V?$basic_string@DU?$char_traits@D@std@@V?$allocator@D@2@@std@@UGLTexture@BookEngine@@U?$less@V?$basic_string@DU?$char_traits@D@std@@V?$allocator@D@2@@std@@@2@V?$allocator@U?$pair@$$CBV?$basic_string@DU?$char_traits@D@std@@V?$allocator@D@2@@std@@UGLTexture@BookEngine@@@std@@@2@$0A@@std@@@std@@QBEPAPAU_Iterator_base12@2@XZ
	?_Getpfirst@?$_Vector_alloc@U?$_Vec_base_types@EV?$allocator@E@std@@@std@@@std@@QBEPAPAU_Iterator_base12@2@XZ
	?_Getpfirst@?$_Vector_alloc@U?$_Vec_base_types@HV?$allocator@H@std@@@std@@@std@@QBEPAPAU_Iterator_base12@2@XZ
	?_Getpfirst@?$_Vector_alloc@U?$_Vec_base_types@IV?$allocator@I@std@@@std@@@std@@QBEPAPAU_Iterator_base12@2@XZ
	?_Getpfirst@?$_Vector_alloc@U?$_Vec_base_types@KV?$allocator@K@std@@@std@@@std@@QBEPAPAU_Iterator_base12@2@XZ
	?_Getpfirst@?$_Vector_alloc@U?$_Vec_base_types@PAVGlyph@BookEngine@@V?$allocator@PAVGlyph@BookEngine@@@std@@@std@@@std@@QBEPAPAU_Iterator_base12@2@XZ
	?_Getpfirst@?$_Vector_alloc@U?$_Vec_base_types@PAVIScreen@BookEngine@@V?$allocator@PAVIScreen@BookEngine@@@std@@@std@@@std@@QBEPAPAU_Iterator_base12@2@XZ
	?_Getpfirst@?$_Vector_alloc@U?$_Vec_base_types@PAVParticleBatch2D@BookEngine@@V?$allocator@PAVParticleBatch2D@BookEngine@@@std@@@std@@@std@@QBEPAPAU_Iterator_base12@2@XZ
	?_Getpfirst@?$_Vector_alloc@U?$_Vec_base_types@U?$tvec2@M$0A@@glm@@V?$allocator@U?$tvec2@M$0A@@glm@@@std@@@std@@@std@@QBEPAPAU_Iterator_base12@2@XZ
	?_Getpfirst@?$_Vector_alloc@U?$_Vec_base_types@U?$tvec3@M$0A@@glm@@V?$allocator@U?$tvec3@M$0A@@glm@@@std@@@std@@@std@@QBEPAPAU_Iterator_base12@2@XZ
	?_Getpfirst@?$_Vector_alloc@U?$_Vec_base_types@U?$tvec4@M$0A@@glm@@V?$allocator@U?$tvec4@M$0A@@glm@@@std@@@std@@@std@@QBEPAPAU_Iterator_base12@2@XZ
	?_Getpfirst@?$_Vector_alloc@U?$_Vec_base_types@UVertex2D@BookEngine@@V?$allocator@UVertex2D@BookEngine@@@std@@@std@@@std@@QBEPAPAU_Iterator_base12@2@XZ
	?_Getpfirst@?$_Vector_alloc@U?$_Vec_base_types@VBatchRenderr@BookEngine@@V?$allocator@VBatchRenderr@BookEngine@@@std@@@std@@@std@@QBEPAPAU_Iterator_base12@2@XZ
	?_Getpfirst@?$_Vector_alloc@U?$_Vec_base_types@VGlyph@BookEngine@@V?$allocator@VGlyph@BookEngine@@@std@@@std@@@std@@QBEPAPAU_Iterator_base12@2@XZ
	?_Getpfirst@_Container_base12@std@@QBEPAPAU_Iterator_base12@2@XZ
	?_Getpnext@_Iterator_base12@std@@QAEPAPAU12@XZ
	?_Getspace@?$_Func_class@XAAVParticle2D@BookEngine@@M@std@@AAEPAXXZ
	?_Getspace@?$_Func_class@XAAVParticle2D@BookEngine@@M@std@@ABEPBXXZ
	?_Getstate@?$basic_stringbuf@DU?$char_traits@D@std@@V?$allocator@D@2@@std@@AAEHH@Z
	?_Has_unused_capacity@?$vector@HV?$allocator@H@std@@@std@@ABE_NXZ
	?_Has_unused_capacity@?$vector@IV?$allocator@I@std@@@std@@ABE_NXZ
	?_Has_unused_capacity@?$vector@PAVIScreen@BookEngine@@V?$allocator@PAVIScreen@BookEngine@@@std@@@std@@ABE_NXZ
	?_Has_unused_capacity@?$vector@PAVParticleBatch2D@BookEngine@@V?$allocator@PAVParticleBatch2D@BookEngine@@@std@@@std@@ABE_NXZ
	?_Has_unused_capacity@?$vector@U?$tvec2@M$0A@@glm@@V?$allocator@U?$tvec2@M$0A@@glm@@@std@@@std@@ABE_NXZ
	?_Has_unused_capacity@?$vector@U?$tvec3@M$0A@@glm@@V?$allocator@U?$tvec3@M$0A@@glm@@@std@@@std@@ABE_NXZ
	?_Has_unused_capacity@?$vector@U?$tvec4@M$0A@@glm@@V?$allocator@U?$tvec4@M$0A@@glm@@@std@@@std@@ABE_NXZ
	?_Has_unused_capacity@?$vector@VBatchRenderr@BookEngine@@V?$allocator@VBatchRenderr@BookEngine@@@std@@@std@@ABE_NXZ
	?_Has_unused_capacity@?$vector@VGlyph@BookEngine@@V?$allocator@VGlyph@BookEngine@@@std@@@std@@ABE_NXZ
	?_Hash_bytes@std@@YAIPBEI@Z
	?_Hashval@?$_Hash@V?$_Umap_traits@I_NV?$_Uhash_compare@IU?$hash@I@std@@U?$equal_to@I@2@@std@@V?$allocator@U?$pair@$$CBI_N@std@@@2@$0A@@std@@@std@@IBEIABI@Z
	?_Incsize@?$list@U?$pair@$$CBI_N@std@@V?$allocator@U?$pair@$$CBI_N@std@@@2@@std@@QAEXI@Z
	?_Init@?$_Hash@V?$_Umap_traits@I_NV?$_Uhash_compare@IU?$hash@I@std@@U?$equal_to@I@2@@std@@V?$allocator@U?$pair@$$CBI_N@std@@@2@$0A@@std@@@std@@IAEXI@Z
	?_Init@?$basic_filebuf@DU?$char_traits@D@std@@@std@@IAEXPAU_iobuf@@W4_Initfl@12@@Z
	?_Init@?$basic_stringbuf@DU?$char_traits@D@std@@V?$allocator@D@2@@std@@IAEXPBDIH@Z
	?_Initcvt@?$basic_filebuf@DU?$char_traits@D@std@@@std@@IAEXPBV?$codecvt@DDU_Mbstatet@@@2@@Z
	?_Insert_bucket@?$_Hash@V?$_Umap_traits@I_NV?$_Uhash_compare@IU?$hash@I@std@@U?$equal_to@I@2@@std@@V?$allocator@U?$pair@$$CBI_N@std@@@2@$0A@@std@@@std@@IAEXV?$_List_unchecked_iterator@V?$_List_val@U?$_List_simple_types@U?$pair@$$CBI_N@std@@@std@@@std@@@2@0I@Z
	?_Key@?$_Tree@V?$_Tmap_traits@V?$basic_string@DU?$char_traits@D@std@@V?$allocator@D@2@@std@@PAUMix_Chunk@@U?$less@V?$basic_string@DU?$char_traits@D@std@@V?$allocator@D@2@@std@@@2@V?$allocator@U?$pair@$$CBV?$basic_string@DU?$char_traits@D@std@@V?$allocator@D@2@@std@@PAUMix_Chunk@@@std@@@2@$0A@@std@@@std@@IBEABV?$basic_string@DU?$char_traits@D@std@@V?$allocator@D@2@@2@PAU?$_Tree_node@U?$pair@$$CBV?$basic_string@DU?$char_traits@D@std@@V?$allocator@D@2@@std@@PAUMix_Chunk@@@std@@PAX@2@@Z
	?_Key@?$_Tree@V?$_Tmap_traits@V?$basic_string@DU?$char_traits@D@std@@V?$allocator@D@2@@std@@PAU_Mix_Music@@U?$less@V?$basic_string@DU?$char_traits@D@std@@V?$allocator@D@2@@std@@@2@V?$allocator@U?$pair@$$CBV?$basic_string@DU?$char_traits@D@std@@V?$allocator@D@2@@std@@PAU_Mix_Music@@@std@@@2@$0A@@std@@@std@@IBEABV?$basic_string@DU?$char_traits@D@std@@V?$allocator@D@2@@2@PAU?$_Tree_node@U?$pair@$$CBV?$basic_string@DU?$char_traits@D@std@@V?$allocator@D@2@@std@@PAU_Mix_Music@@@std@@PAX@2@@Z
	?_Key@?$_Tree@V?$_Tmap_traits@V?$basic_string@DU?$char_traits@D@std@@V?$allocator@D@2@@std@@UGLTexture@BookEngine@@U?$less@V?$basic_string@DU?$char_traits@D@std@@V?$allocator@D@2@@std@@@2@V?$allocator@U?$pair@$$CBV?$basic_string@DU?$char_traits@D@std@@V?$allocator@D@2@@std@@UGLTexture@BookEngine@@@std@@@2@$0A@@std@@@std@@IBEABV?$basic_string@DU?$char_traits@D@std@@V?$allocator@D@2@@2@PAU?$_Tree_node@U?$pair@$$CBV?$basic_string@DU?$char_traits@D@std@@V?$allocator@D@2@@std@@UGLTexture@BookEngine@@@std@@PAX@2@@Z
	?_Kfn@?$_Tree@V?$_Tmap_traits@V?$basic_string@DU?$char_traits@D@std@@V?$allocator@D@2@@std@@PAUMix_Chunk@@U?$less@V?$basic_string@DU?$char_traits@D@std@@V?$allocator@D@2@@std@@@2@V?$allocator@U?$pair@$$CBV?$basic_string@DU?$char_traits@D@std@@V?$allocator@D@2@@std@@PAUMix_Chunk@@@std@@@2@$0A@@std@@@std@@IBEABV?$basic_string@DU?$char_traits@D@std@@V?$allocator@D@2@@2@ABU?$pair@$$CBV?$basic_string@DU?$char_traits@D@std@@V?$allocator@D@2@@std@@PAUMix_Chunk@@@2@@Z
	?_Kfn@?$_Tree@V?$_Tmap_traits@V?$basic_string@DU?$char_traits@D@std@@V?$allocator@D@2@@std@@PAU_Mix_Music@@U?$less@V?$basic_string@DU?$char_traits@D@std@@V?$allocator@D@2@@std@@@2@V?$allocator@U?$pair@$$CBV?$basic_string@DU?$char_traits@D@std@@V?$allocator@D@2@@std@@PAU_Mix_Music@@@std@@@2@$0A@@std@@@std@@IBEABV?$basic_string@DU?$char_traits@D@std@@V?$allocator@D@2@@2@ABU?$pair@$$CBV?$basic_string@DU?$char_traits@D@std@@V?$allocator@D@2@@std@@PAU_Mix_Music@@@2@@Z
	?_Kfn@?$_Tree@V?$_Tmap_traits@V?$basic_string@DU?$char_traits@D@std@@V?$allocator@D@2@@std@@UGLTexture@BookEngine@@U?$less@V?$basic_string@DU?$char_traits@D@std@@V?$allocator@D@2@@std@@@2@V?$allocator@U?$pair@$$CBV?$basic_string@DU?$char_traits@D@std@@V?$allocator@D@2@@std@@UGLTexture@BookEngine@@@std@@@2@$0A@@std@@@std@@IBEABV?$basic_string@DU?$char_traits@D@std@@V?$allocator@D@2@@2@ABU?$pair@$$CBV?$basic_string@DU?$char_traits@D@std@@V?$allocator@D@2@@std@@UGLTexture@BookEngine@@@2@@Z
	?_Large_string_engaged@?$_String_val@U?$_Simple_types@D@std@@@std@@QBE_NXZ
	?_Lmost@?$_Tree@V?$_Tmap_traits@V?$basic_string@DU?$char_traits@D@std@@V?$allocator@D@2@@std@@PAUMix_Chunk@@U?$less@V?$basic_string@DU?$char_traits@D@std@@V?$allocator@D@2@@std@@@2@V?$allocator@U?$pair@$$CBV?$basic_string@DU?$char_traits@D@std@@V?$allocator@D@2@@std@@PAUMix_Chunk@@@std@@@2@$0A@@std@@@std@@IBEAAPAU?$_Tree_node@U?$pair@$$CBV?$basic_string@DU?$char_traits@D@std@@V?$allocator@D@2@@std@@PAUMix_Chunk@@@std@@PAX@2@XZ
	?_Lmost@?$_Tree@V?$_Tmap_traits@V?$basic_string@DU?$char_traits@D@std@@V?$allocator@D@2@@std@@PAU_Mix_Music@@U?$less@V?$basic_string@DU?$char_traits@D@std@@V?$allocator@D@2@@std@@@2@V?$allocator@U?$pair@$$CBV?$basic_string@DU?$char_traits@D@std@@V?$allocator@D@2@@std@@PAU_Mix_Music@@@std@@@2@$0A@@std@@@std@@IBEAAPAU?$_Tree_node@U?$pair@$$CBV?$basic_string@DU?$char_traits@D@std@@V?$allocator@D@2@@std@@PAU_Mix_Music@@@std@@PAX@2@XZ
	?_Lmost@?$_Tree@V?$_Tmap_traits@V?$basic_string@DU?$char_traits@D@std@@V?$allocator@D@2@@std@@UGLTexture@BookEngine@@U?$less@V?$basic_string@DU?$char_traits@D@std@@V?$allocator@D@2@@std@@@2@V?$allocator@U?$pair@$$CBV?$basic_string@DU?$char_traits@D@std@@V?$allocator@D@2@@std@@UGLTexture@BookEngine@@@std@@@2@$0A@@std@@@std@@IBEAAPAU?$_Tree_node@U?$pair@$$CBV?$basic_string@DU?$char_traits@D@std@@V?$allocator@D@2@@std@@UGLTexture@BookEngine@@@std@@PAX@2@XZ
	?_Local@?$_Func_class@XAAVParticle2D@BookEngine@@M@std@@ABE_NXZ
	?_Lock@?$basic_filebuf@DU?$char_traits@D@std@@@std@@UAEXXZ
	?_Lrotate@?$_Tree@V?$_Tmap_traits@V?$basic_string@DU?$char_traits@D@std@@V?$allocator@D@2@@std@@PAUMix_Chunk@@U?$less@V?$basic_string@DU?$char_traits@D@std@@V?$allocator@D@2@@std@@@2@V?$allocator@U?$pair@$$CBV?$basic_string@DU?$char_traits@D@std@@V?$allocator@D@2@@std@@PAUMix_Chunk@@@std@@@2@$0A@@std@@@std@@IAEXPAU?$_Tree_node@U?$pair@$$CBV?$basic_string@DU?$char_traits@D@std@@V?$allocator@D@2@@std@@PAUMix_Chunk@@@std@@PAX@2@@Z
	?_Lrotate@?$_Tree@V?$_Tmap_traits@V?$basic_string@DU?$char_traits@D@std@@V?$allocator@D@2@@std@@PAU_Mix_Music@@U?$less@V?$basic_string@DU?$char_traits@D@std@@V?$allocator@D@2@@std@@@2@V?$allocator@U?$pair@$$CBV?$basic_string@DU?$char_traits@D@std@@V?$allocator@D@2@@std@@PAU_Mix_Music@@@std@@@2@$0A@@std@@@std@@IAEXPAU?$_Tree_node@U?$pair@$$CBV?$basic_string@DU?$char_traits@D@std@@V?$allocator@D@2@@std@@PAU_Mix_Music@@@std@@PAX@2@@Z
	?_Lrotate@?$_Tree@V?$_Tmap_traits@V?$basic_string@DU?$char_traits@D@std@@V?$allocator@D@2@@std@@UGLTexture@BookEngine@@U?$less@V?$basic_string@DU?$char_traits@D@std@@V?$allocator@D@2@@std@@@2@V?$allocator@U?$pair@$$CBV?$basic_string@DU?$char_traits@D@std@@V?$allocator@D@2@@std@@UGLTexture@BookEngine@@@std@@@2@$0A@@std@@@std@@IAEXPAU?$_Tree_node@U?$pair@$$CBV?$basic_string@DU?$char_traits@D@std@@V?$allocator@D@2@@std@@UGLTexture@BookEngine@@@std@@PAX@2@@Z
	?_Make_iter@?$_Hash@V?$_Umap_traits@I_NV?$_Uhash_compare@IU?$hash@I@std@@U?$equal_to@I@2@@std@@V?$allocator@U?$pair@$$CBI_N@std@@@2@$0A@@std@@@std@@QBE?AV?$_List_iterator@V?$_List_val@U?$_List_simple_types@U?$pair@$$CBI_N@std@@@std@@@std@@@2@V?$_List_const_iterator@V?$_List_val@U?$_List_simple_types@U?$pair@$$CBI_N@std@@@std@@@std@@@2@@Z
	?_Make_iter@?$_Hash@V?$_Umap_traits@I_NV?$_Uhash_compare@IU?$hash@I@std@@U?$equal_to@I@2@@std@@V?$allocator@U?$pair@$$CBI_N@std@@@2@$0A@@std@@@std@@QBE?AV?$_List_iterator@V?$_List_val@U?$_List_simple_types@U?$pair@$$CBI_N@std@@@std@@@std@@@2@V?$_List_unchecked_const_iterator@V?$_List_val@U?$_List_simple_types@U?$pair@$$CBI_N@std@@@std@@@std@@U_Iterator_base0@2@@2@@Z
	?_Make_iter@?$list@U?$pair@$$CBI_N@std@@V?$allocator@U?$pair@$$CBI_N@std@@@2@@std@@QBE?AV?$_List_iterator@V?$_List_val@U?$_List_simple_types@U?$pair@$$CBI_N@std@@@std@@@std@@@2@V?$_List_const_iterator@V?$_List_val@U?$_List_simple_types@U?$pair@$$CBI_N@std@@@std@@@std@@@2@@Z
	?_Make_iter@?$list@U?$pair@$$CBI_N@std@@V?$allocator@U?$pair@$$CBI_N@std@@@2@@std@@QBE?AV?$_List_iterator@V?$_List_val@U?$_List_simple_types@U?$pair@$$CBI_N@std@@@std@@@std@@@2@V?$_List_unchecked_const_iterator@V?$_List_val@U?$_List_simple_types@U?$pair@$$CBI_N@std@@@std@@@std@@U_Iterator_base0@2@@2@@Z
	?_Max@?$_Tree_comp_alloc@V?$_Tmap_traits@V?$basic_string@DU?$char_traits@D@std@@V?$allocator@D@2@@std@@PAUMix_Chunk@@U?$less@V?$basic_string@DU?$char_traits@D@std@@V?$allocator@D@2@@std@@@2@V?$allocator@U?$pair@$$CBV?$basic_string@DU?$char_traits@D@std@@V?$allocator@D@2@@std@@PAUMix_Chunk@@@std@@@2@$0A@@std@@@std@@SAPAU?$_Tree_node@U?$pair@$$CBV?$basic_string@DU?$char_traits@D@std@@V?$allocator@D@2@@std@@PAUMix_Chunk@@@std@@PAX@2@PAU32@@Z
	?_Max@?$_Tree_comp_alloc@V?$_Tmap_traits@V?$basic_string@DU?$char_traits@D@std@@V?$allocator@D@2@@std@@PAU_Mix_Music@@U?$less@V?$basic_string@DU?$char_traits@D@std@@V?$allocator@D@2@@std@@@2@V?$allocator@U?$pair@$$CBV?$basic_string@DU?$char_traits@D@std@@V?$allocator@D@2@@std@@PAU_Mix_Music@@@std@@@2@$0A@@std@@@std@@SAPAU?$_Tree_node@U?$pair@$$CBV?$basic_string@DU?$char_traits@D@std@@V?$allocator@D@2@@std@@PAU_Mix_Music@@@std@@PAX@2@PAU32@@Z
	?_Max@?$_Tree_comp_alloc@V?$_Tmap_traits@V?$basic_string@DU?$char_traits@D@std@@V?$allocator@D@2@@std@@UGLTexture@BookEngine@@U?$less@V?$basic_string@DU?$char_traits@D@std@@V?$allocator@D@2@@std@@@2@V?$allocator@U?$pair@$$CBV?$basic_string@DU?$char_traits@D@std@@V?$allocator@D@2@@std@@UGLTexture@BookEngine@@@std@@@2@$0A@@std@@@std@@SAPAU?$_Tree_node@U?$pair@$$CBV?$basic_string@DU?$char_traits@D@std@@V?$allocator@D@2@@std@@UGLTexture@BookEngine@@@std@@PAX@2@PAU32@@Z
	?_Max@?$_Tree_val@U?$_Tree_simple_types@U?$pair@$$CBV?$basic_string@DU?$char_traits@D@std@@V?$allocator@D@2@@std@@PAUMix_Chunk@@@std@@@std@@@std@@SAPAU?$_Tree_node@U?$pair@$$CBV?$basic_string@DU?$char_traits@D@std@@V?$allocator@D@2@@std@@PAUMix_Chunk@@@std@@PAX@2@PAU32@@Z
	?_Max@?$_Tree_val@U?$_Tree_simple_types@U?$pair@$$CBV?$basic_string@DU?$char_traits@D@std@@V?$allocator@D@2@@std@@PAU_Mix_Music@@@std@@@std@@@std@@SAPAU?$_Tree_node@U?$pair@$$CBV?$basic_string@DU?$char_traits@D@std@@V?$allocator@D@2@@std@@PAU_Mix_Music@@@std@@PAX@2@PAU32@@Z
	?_Max@?$_Tree_val@U?$_Tree_simple_types@U?$pair@$$CBV?$basic_string@DU?$char_traits@D@std@@V?$allocator@D@2@@std@@UGLTexture@BookEngine@@@std@@@std@@@std@@SAPAU?$_Tree_node@U?$pair@$$CBV?$basic_string@DU?$char_traits@D@std@@V?$allocator@D@2@@std@@UGLTexture@BookEngine@@@std@@PAX@2@PAU32@@Z
	?_Max_bucket_size@?$_Hash@V?$_Umap_traits@I_NV?$_Uhash_compare@IU?$hash@I@std@@U?$equal_to@I@2@@std@@V?$allocator@U?$pair@$$CBI_N@std@@@2@$0A@@std@@@std@@IAEAAMXZ
	?_Max_bucket_size@?$_Hash@V?$_Umap_traits@I_NV?$_Uhash_compare@IU?$hash@I@std@@U?$equal_to@I@2@@std@@V?$allocator@U?$pair@$$CBI_N@std@@@2@$0A@@std@@@std@@IBEABMXZ
	?_Min@?$_Tree_comp_alloc@V?$_Tmap_traits@V?$basic_string@DU?$char_traits@D@std@@V?$allocator@D@2@@std@@PAUMix_Chunk@@U?$less@V?$basic_string@DU?$char_traits@D@std@@V?$allocator@D@2@@std@@@2@V?$allocator@U?$pair@$$CBV?$basic_string@DU?$char_traits@D@std@@V?$allocator@D@2@@std@@PAUMix_Chunk@@@std@@@2@$0A@@std@@@std@@SAPAU?$_Tree_node@U?$pair@$$CBV?$basic_string@DU?$char_traits@D@std@@V?$allocator@D@2@@std@@PAUMix_Chunk@@@std@@PAX@2@PAU32@@Z
	?_Min@?$_Tree_comp_alloc@V?$_Tmap_traits@V?$basic_string@DU?$char_traits@D@std@@V?$allocator@D@2@@std@@PAU_Mix_Music@@U?$less@V?$basic_string@DU?$char_traits@D@std@@V?$allocator@D@2@@std@@@2@V?$allocator@U?$pair@$$CBV?$basic_string@DU?$char_traits@D@std@@V?$allocator@D@2@@std@@PAU_Mix_Music@@@std@@@2@$0A@@std@@@std@@SAPAU?$_Tree_node@U?$pair@$$CBV?$basic_string@DU?$char_traits@D@std@@V?$allocator@D@2@@std@@PAU_Mix_Music@@@std@@PAX@2@PAU32@@Z
	?_Min@?$_Tree_comp_alloc@V?$_Tmap_traits@V?$basic_string@DU?$char_traits@D@std@@V?$allocator@D@2@@std@@UGLTexture@BookEngine@@U?$less@V?$basic_string@DU?$char_traits@D@std@@V?$allocator@D@2@@std@@@2@V?$allocator@U?$pair@$$CBV?$basic_string@DU?$char_traits@D@std@@V?$allocator@D@2@@std@@UGLTexture@BookEngine@@@std@@@2@$0A@@std@@@std@@SAPAU?$_Tree_node@U?$pair@$$CBV?$basic_string@DU?$char_traits@D@std@@V?$allocator@D@2@@std@@UGLTexture@BookEngine@@@std@@PAX@2@PAU32@@Z
	?_Min@?$_Tree_val@U?$_Tree_simple_types@U?$pair@$$CBV?$basic_string@DU?$char_traits@D@std@@V?$allocator@D@2@@std@@PAUMix_Chunk@@@std@@@std@@@std@@SAPAU?$_Tree_node@U?$pair@$$CBV?$basic_string@DU?$char_traits@D@std@@V?$allocator@D@2@@std@@PAUMix_Chunk@@@std@@PAX@2@PAU32@@Z
	?_Min@?$_Tree_val@U?$_Tree_simple_types@U?$pair@$$CBV?$basic_string@DU?$char_traits@D@std@@V?$allocator@D@2@@std@@PAU_Mix_Music@@@std@@@std@@@std@@SAPAU?$_Tree_node@U?$pair@$$CBV?$basic_string@DU?$char_traits@D@std@@V?$allocator@D@2@@std@@PAU_Mix_Music@@@std@@PAX@2@PAU32@@Z
	?_Min@?$_Tree_val@U?$_Tree_simple_types@U?$pair@$$CBV?$basic_string@DU?$char_traits@D@std@@V?$allocator@D@2@@std@@UGLTexture@BookEngine@@@std@@@std@@@std@@SAPAU?$_Tree_node@U?$pair@$$CBV?$basic_string@DU?$char_traits@D@std@@V?$allocator@D@2@@std@@UGLTexture@BookEngine@@@std@@PAX@2@PAU32@@Z
	?_Myend@?$_Vector_alloc@U?$_Vec_base_types@DV?$allocator@D@std@@@std@@@std@@QAEAAPADXZ
	?_Myend@?$_Vector_alloc@U?$_Vec_base_types@DV?$allocator@D@std@@@std@@@std@@QBEABQADXZ
	?_Myend@?$_Vector_alloc@U?$_Vec_base_types@EV?$allocator@E@std@@@std@@@std@@QAEAAPAEXZ
	?_Myend@?$_Vector_alloc@U?$_Vec_base_types@EV?$allocator@E@std@@@std@@@std@@QBEABQAEXZ
	?_Myend@?$_Vector_alloc@U?$_Vec_base_types@HV?$allocator@H@std@@@std@@@std@@QAEAAPAHXZ
	?_Myend@?$_Vector_alloc@U?$_Vec_base_types@HV?$allocator@H@std@@@std@@@std@@QBEABQAHXZ
	?_Myend@?$_Vector_alloc@U?$_Vec_base_types@IV?$allocator@I@std@@@std@@@std@@QAEAAPAIXZ
	?_Myend@?$_Vector_alloc@U?$_Vec_base_types@IV?$allocator@I@std@@@std@@@std@@QBEABQAIXZ
	?_Myend@?$_Vector_alloc@U?$_Vec_base_types@KV?$allocator@K@std@@@std@@@std@@QAEAAPAKXZ
	?_Myend@?$_Vector_alloc@U?$_Vec_base_types@KV?$allocator@K@std@@@std@@@std@@QBEABQAKXZ
	?_Myend@?$_Vector_alloc@U?$_Vec_base_types@PAVGlyph@BookEngine@@V?$allocator@PAVGlyph@BookEngine@@@std@@@std@@@std@@QAEAAPAPAVGlyph@BookEngine@@XZ
	?_Myend@?$_Vector_alloc@U?$_Vec_base_types@PAVGlyph@BookEngine@@V?$allocator@PAVGlyph@BookEngine@@@std@@@std@@@std@@QBEABQAPAVGlyph@BookEngine@@XZ
	?_Myend@?$_Vector_alloc@U?$_Vec_base_types@PAVIScreen@BookEngine@@V?$allocator@PAVIScreen@BookEngine@@@std@@@std@@@std@@QAEAAPAPAVIScreen@BookEngine@@XZ
	?_Myend@?$_Vector_alloc@U?$_Vec_base_types@PAVIScreen@BookEngine@@V?$allocator@PAVIScreen@BookEngine@@@std@@@std@@@std@@QBEABQAPAVIScreen@BookEngine@@XZ
	?_Myend@?$_Vector_alloc@U?$_Vec_base_types@PAVParticleBatch2D@BookEngine@@V?$allocator@PAVParticleBatch2D@BookEngine@@@std@@@std@@@std@@QAEAAPAPAVParticleBatch2D@BookEngine@@XZ
	?_Myend@?$_Vector_alloc@U?$_Vec_base_types@PAVParticleBatch2D@BookEngine@@V?$allocator@PAVParticleBatch2D@BookEngine@@@std@@@std@@@std@@QBEABQAPAVParticleBatch2D@BookEngine@@XZ
	?_Myend@?$_Vector_alloc@U?$_Vec_base_types@U?$tvec2@M$0A@@glm@@V?$allocator@U?$tvec2@M$0A@@glm@@@std@@@std@@@std@@QAEAAPAU?$tvec2@M$0A@@glm@@XZ
	?_Myend@?$_Vector_alloc@U?$_Vec_base_types@U?$tvec2@M$0A@@glm@@V?$allocator@U?$tvec2@M$0A@@glm@@@std@@@std@@@std@@QBEABQAU?$tvec2@M$0A@@glm@@XZ
	?_Myend@?$_Vector_alloc@U?$_Vec_base_types@U?$tvec3@M$0A@@glm@@V?$allocator@U?$tvec3@M$0A@@glm@@@std@@@std@@@std@@QAEAAPAU?$tvec3@M$0A@@glm@@XZ
	?_Myend@?$_Vector_alloc@U?$_Vec_base_types@U?$tvec3@M$0A@@glm@@V?$allocator@U?$tvec3@M$0A@@glm@@@std@@@std@@@std@@QBEABQAU?$tvec3@M$0A@@glm@@XZ
	?_Myend@?$_Vector_alloc@U?$_Vec_base_types@U?$tvec4@M$0A@@glm@@V?$allocator@U?$tvec4@M$0A@@glm@@@std@@@std@@@std@@QAEAAPAU?$tvec4@M$0A@@glm@@XZ
	?_Myend@?$_Vector_alloc@U?$_Vec_base_types@U?$tvec4@M$0A@@glm@@V?$allocator@U?$tvec4@M$0A@@glm@@@std@@@std@@@std@@QBEABQAU?$tvec4@M$0A@@glm@@XZ
	?_Myend@?$_Vector_alloc@U?$_Vec_base_types@UVertex2D@BookEngine@@V?$allocator@UVertex2D@BookEngine@@@std@@@std@@@std@@QAEAAPAUVertex2D@BookEngine@@XZ
	?_Myend@?$_Vector_alloc@U?$_Vec_base_types@UVertex2D@BookEngine@@V?$allocator@UVertex2D@BookEngine@@@std@@@std@@@std@@QBEABQAUVertex2D@BookEngine@@XZ
	?_Myend@?$_Vector_alloc@U?$_Vec_base_types@V?$_List_unchecked_iterator@V?$_List_val@U?$_List_simple_types@U?$pair@$$CBI_N@std@@@std@@@std@@@std@@V?$allocator@V?$_List_unchecked_iterator@V?$_List_val@U?$_List_simple_types@U?$pair@$$CBI_N@std@@@std@@@std@@@std@@@2@@std@@@std@@QAEAAPAV?$_List_unchecked_iterator@V?$_List_val@U?$_List_simple_types@U?$pair@$$CBI_N@std@@@std@@@std@@@2@XZ
	?_Myend@?$_Vector_alloc@U?$_Vec_base_types@V?$_List_unchecked_iterator@V?$_List_val@U?$_List_simple_types@U?$pair@$$CBI_N@std@@@std@@@std@@@std@@V?$allocator@V?$_List_unchecked_iterator@V?$_List_val@U?$_List_simple_types@U?$pair@$$CBI_N@std@@@std@@@std@@@std@@@2@@std@@@std@@QBEABQAV?$_List_unchecked_iterator@V?$_List_val@U?$_List_simple_types@U?$pair@$$CBI_N@std@@@std@@@std@@@2@XZ
	?_Myend@?$_Vector_alloc@U?$_Vec_base_types@VBatchRenderr@BookEngine@@V?$allocator@VBatchRenderr@BookEngine@@@std@@@std@@@std@@QAEAAPAVBatchRenderr@BookEngine@@XZ
	?_Myend@?$_Vector_alloc@U?$_Vec_base_types@VBatchRenderr@BookEngine@@V?$allocator@VBatchRenderr@BookEngine@@@std@@@std@@@std@@QBEABQAVBatchRenderr@BookEngine@@XZ
	?_Myend@?$_Vector_alloc@U?$_Vec_base_types@VGlyph@BookEngine@@V?$allocator@VGlyph@BookEngine@@@std@@@std@@@std@@QAEAAPAVGlyph@BookEngine@@XZ
	?_Myend@?$_Vector_alloc@U?$_Vec_base_types@VGlyph@BookEngine@@V?$allocator@VGlyph@BookEngine@@@std@@@std@@@std@@QBEABQAVGlyph@BookEngine@@XZ
	?_Myfirst@?$_Vector_alloc@U?$_Vec_base_types@DV?$allocator@D@std@@@std@@@std@@QAEAAPADXZ
	?_Myfirst@?$_Vector_alloc@U?$_Vec_base_types@DV?$allocator@D@std@@@std@@@std@@QBEABQADXZ
	?_Myfirst@?$_Vector_alloc@U?$_Vec_base_types@EV?$allocator@E@std@@@std@@@std@@QAEAAPAEXZ
	?_Myfirst@?$_Vector_alloc@U?$_Vec_base_types@EV?$allocator@E@std@@@std@@@std@@QBEABQAEXZ
	?_Myfirst@?$_Vector_alloc@U?$_Vec_base_types@HV?$allocator@H@std@@@std@@@std@@QAEAAPAHXZ
	?_Myfirst@?$_Vector_alloc@U?$_Vec_base_types@HV?$allocator@H@std@@@std@@@std@@QBEABQAHXZ
	?_Myfirst@?$_Vector_alloc@U?$_Vec_base_types@IV?$allocator@I@std@@@std@@@std@@QAEAAPAIXZ
	?_Myfirst@?$_Vector_alloc@U?$_Vec_base_types@IV?$allocator@I@std@@@std@@@std@@QBEABQAIXZ
	?_Myfirst@?$_Vector_alloc@U?$_Vec_base_types@KV?$allocator@K@std@@@std@@@std@@QAEAAPAKXZ
	?_Myfirst@?$_Vector_alloc@U?$_Vec_base_types@KV?$allocator@K@std@@@std@@@std@@QBEABQAKXZ
	?_Myfirst@?$_Vector_alloc@U?$_Vec_base_types@PAVGlyph@BookEngine@@V?$allocator@PAVGlyph@BookEngine@@@std@@@std@@@std@@QAEAAPAPAVGlyph@BookEngine@@XZ
	?_Myfirst@?$_Vector_alloc@U?$_Vec_base_types@PAVGlyph@BookEngine@@V?$allocator@PAVGlyph@BookEngine@@@std@@@std@@@std@@QBEABQAPAVGlyph@BookEngine@@XZ
	?_Myfirst@?$_Vector_alloc@U?$_Vec_base_types@PAVIScreen@BookEngine@@V?$allocator@PAVIScreen@BookEngine@@@std@@@std@@@std@@QAEAAPAPAVIScreen@BookEngine@@XZ
	?_Myfirst@?$_Vector_alloc@U?$_Vec_base_types@PAVIScreen@BookEngine@@V?$allocator@PAVIScreen@BookEngine@@@std@@@std@@@std@@QBEABQAPAVIScreen@BookEngine@@XZ
	?_Myfirst@?$_Vector_alloc@U?$_Vec_base_types@PAVParticleBatch2D@BookEngine@@V?$allocator@PAVParticleBatch2D@BookEngine@@@std@@@std@@@std@@QAEAAPAPAVParticleBatch2D@BookEngine@@XZ
	?_Myfirst@?$_Vector_alloc@U?$_Vec_base_types@PAVParticleBatch2D@BookEngine@@V?$allocator@PAVParticleBatch2D@BookEngine@@@std@@@std@@@std@@QBEABQAPAVParticleBatch2D@BookEngine@@XZ
	?_Myfirst@?$_Vector_alloc@U?$_Vec_base_types@U?$tvec2@M$0A@@glm@@V?$allocator@U?$tvec2@M$0A@@glm@@@std@@@std@@@std@@QAEAAPAU?$tvec2@M$0A@@glm@@XZ
	?_Myfirst@?$_Vector_alloc@U?$_Vec_base_types@U?$tvec2@M$0A@@glm@@V?$allocator@U?$tvec2@M$0A@@glm@@@std@@@std@@@std@@QBEABQAU?$tvec2@M$0A@@glm@@XZ
	?_Myfirst@?$_Vector_alloc@U?$_Vec_base_types@U?$tvec3@M$0A@@glm@@V?$allocator@U?$tvec3@M$0A@@glm@@@std@@@std@@@std@@QAEAAPAU?$tvec3@M$0A@@glm@@XZ
	?_Myfirst@?$_Vector_alloc@U?$_Vec_base_types@U?$tvec3@M$0A@@glm@@V?$allocator@U?$tvec3@M$0A@@glm@@@std@@@std@@@std@@QBEABQAU?$tvec3@M$0A@@glm@@XZ
	?_Myfirst@?$_Vector_alloc@U?$_Vec_base_types@U?$tvec4@M$0A@@glm@@V?$allocator@U?$tvec4@M$0A@@glm@@@std@@@std@@@std@@QAEAAPAU?$tvec4@M$0A@@glm@@XZ
	?_Myfirst@?$_Vector_alloc@U?$_Vec_base_types@U?$tvec4@M$0A@@glm@@V?$allocator@U?$tvec4@M$0A@@glm@@@std@@@std@@@std@@QBEABQAU?$tvec4@M$0A@@glm@@XZ
	?_Myfirst@?$_Vector_alloc@U?$_Vec_base_types@UVertex2D@BookEngine@@V?$allocator@UVertex2D@BookEngine@@@std@@@std@@@std@@QAEAAPAUVertex2D@BookEngine@@XZ
	?_Myfirst@?$_Vector_alloc@U?$_Vec_base_types@UVertex2D@BookEngine@@V?$allocator@UVertex2D@BookEngine@@@std@@@std@@@std@@QBEABQAUVertex2D@BookEngine@@XZ
	?_Myfirst@?$_Vector_alloc@U?$_Vec_base_types@V?$_List_unchecked_iterator@V?$_List_val@U?$_List_simple_types@U?$pair@$$CBI_N@std@@@std@@@std@@@std@@V?$allocator@V?$_List_unchecked_iterator@V?$_List_val@U?$_List_simple_types@U?$pair@$$CBI_N@std@@@std@@@std@@@std@@@2@@std@@@std@@QAEAAPAV?$_List_unchecked_iterator@V?$_List_val@U?$_List_simple_types@U?$pair@$$CBI_N@std@@@std@@@std@@@2@XZ
	?_Myfirst@?$_Vector_alloc@U?$_Vec_base_types@V?$_List_unchecked_iterator@V?$_List_val@U?$_List_simple_types@U?$pair@$$CBI_N@std@@@std@@@std@@@std@@V?$allocator@V?$_List_unchecked_iterator@V?$_List_val@U?$_List_simple_types@U?$pair@$$CBI_N@std@@@std@@@std@@@std@@@2@@std@@@std@@QBEABQAV?$_List_unchecked_iterator@V?$_List_val@U?$_List_simple_types@U?$pair@$$CBI_N@std@@@std@@@std@@@2@XZ
	?_Myfirst@?$_Vector_alloc@U?$_Vec_base_types@VBatchRenderr@BookEngine@@V?$allocator@VBatchRenderr@BookEngine@@@std@@@std@@@std@@QAEAAPAVBatchRenderr@BookEngine@@XZ
	?_Myfirst@?$_Vector_alloc@U?$_Vec_base_types@VBatchRenderr@BookEngine@@V?$allocator@VBatchRenderr@BookEngine@@@std@@@std@@@std@@QBEABQAVBatchRenderr@BookEngine@@XZ
	?_Myfirst@?$_Vector_alloc@U?$_Vec_base_types@VGlyph@BookEngine@@V?$allocator@VGlyph@BookEngine@@@std@@@std@@@std@@QAEAAPAVGlyph@BookEngine@@XZ
	?_Myfirst@?$_Vector_alloc@U?$_Vec_base_types@VGlyph@BookEngine@@V?$allocator@VGlyph@BookEngine@@@std@@@std@@@std@@QBEABQAVGlyph@BookEngine@@XZ
	?_Myhead@?$_List_alloc@U?$_List_base_types@U?$pair@$$CBI_N@std@@V?$allocator@U?$pair@$$CBI_N@std@@@2@@std@@@std@@QAEAAPAU?$_List_node@U?$pair@$$CBI_N@std@@PAX@2@XZ
	?_Myhead@?$_Tree_comp_alloc@V?$_Tmap_traits@V?$basic_string@DU?$char_traits@D@std@@V?$allocator@D@2@@std@@PAUMix_Chunk@@U?$less@V?$basic_string@DU?$char_traits@D@std@@V?$allocator@D@2@@std@@@2@V?$allocator@U?$pair@$$CBV?$basic_string@DU?$char_traits@D@std@@V?$allocator@D@2@@std@@PAUMix_Chunk@@@std@@@2@$0A@@std@@@std@@QAEAAPAU?$_Tree_node@U?$pair@$$CBV?$basic_string@DU?$char_traits@D@std@@V?$allocator@D@2@@std@@PAUMix_Chunk@@@std@@PAX@2@XZ
	?_Myhead@?$_Tree_comp_alloc@V?$_Tmap_traits@V?$basic_string@DU?$char_traits@D@std@@V?$allocator@D@2@@std@@PAUMix_Chunk@@U?$less@V?$basic_string@DU?$char_traits@D@std@@V?$allocator@D@2@@std@@@2@V?$allocator@U?$pair@$$CBV?$basic_string@DU?$char_traits@D@std@@V?$allocator@D@2@@std@@PAUMix_Chunk@@@std@@@2@$0A@@std@@@std@@QBEABQAU?$_Tree_node@U?$pair@$$CBV?$basic_string@DU?$char_traits@D@std@@V?$allocator@D@2@@std@@PAUMix_Chunk@@@std@@PAX@2@XZ
	?_Myhead@?$_Tree_comp_alloc@V?$_Tmap_traits@V?$basic_string@DU?$char_traits@D@std@@V?$allocator@D@2@@std@@PAU_Mix_Music@@U?$less@V?$basic_string@DU?$char_traits@D@std@@V?$allocator@D@2@@std@@@2@V?$allocator@U?$pair@$$CBV?$basic_string@DU?$char_traits@D@std@@V?$allocator@D@2@@std@@PAU_Mix_Music@@@std@@@2@$0A@@std@@@std@@QAEAAPAU?$_Tree_node@U?$pair@$$CBV?$basic_string@DU?$char_traits@D@std@@V?$allocator@D@2@@std@@PAU_Mix_Music@@@std@@PAX@2@XZ
	?_Myhead@?$_Tree_comp_alloc@V?$_Tmap_traits@V?$basic_string@DU?$char_traits@D@std@@V?$allocator@D@2@@std@@PAU_Mix_Music@@U?$less@V?$basic_string@DU?$char_traits@D@std@@V?$allocator@D@2@@std@@@2@V?$allocator@U?$pair@$$CBV?$basic_string@DU?$char_traits@D@std@@V?$allocator@D@2@@std@@PAU_Mix_Music@@@std@@@2@$0A@@std@@@std@@QBEABQAU?$_Tree_node@U?$pair@$$CBV?$basic_string@DU?$char_traits@D@std@@V?$allocator@D@2@@std@@PAU_Mix_Music@@@std@@PAX@2@XZ
	?_Myhead@?$_Tree_comp_alloc@V?$_Tmap_traits@V?$basic_string@DU?$char_traits@D@std@@V?$allocator@D@2@@std@@UGLTexture@BookEngine@@U?$less@V?$basic_string@DU?$char_traits@D@std@@V?$allocator@D@2@@std@@@2@V?$allocator@U?$pair@$$CBV?$basic_string@DU?$char_traits@D@std@@V?$allocator@D@2@@std@@UGLTexture@BookEngine@@@std@@@2@$0A@@std@@@std@@QAEAAPAU?$_Tree_node@U?$pair@$$CBV?$basic_string@DU?$char_traits@D@std@@V?$allocator@D@2@@std@@UGLTexture@BookEngine@@@std@@PAX@2@XZ
	?_Myhead@?$_Tree_comp_alloc@V?$_Tmap_traits@V?$basic_string@DU?$char_traits@D@std@@V?$allocator@D@2@@std@@UGLTexture@BookEngine@@U?$less@V?$basic_string@DU?$char_traits@D@std@@V?$allocator@D@2@@std@@@2@V?$allocator@U?$pair@$$CBV?$basic_string@DU?$char_traits@D@std@@V?$allocator@D@2@@std@@UGLTexture@BookEngine@@@std@@@2@$0A@@std@@@std@@QBEABQAU?$_Tree_node@U?$pair@$$CBV?$basic_string@DU?$char_traits@D@std@@V?$allocator@D@2@@std@@UGLTexture@BookEngine@@@std@@PAX@2@XZ
	?_Mylast@?$_Vector_alloc@U?$_Vec_base_types@DV?$allocator@D@std@@@std@@@std@@QAEAAPADXZ
	?_Mylast@?$_Vector_alloc@U?$_Vec_base_types@DV?$allocator@D@std@@@std@@@std@@QBEABQADXZ
	?_Mylast@?$_Vector_alloc@U?$_Vec_base_types@EV?$allocator@E@std@@@std@@@std@@QAEAAPAEXZ
	?_Mylast@?$_Vector_alloc@U?$_Vec_base_types@EV?$allocator@E@std@@@std@@@std@@QBEABQAEXZ
	?_Mylast@?$_Vector_alloc@U?$_Vec_base_types@HV?$allocator@H@std@@@std@@@std@@QAEAAPAHXZ
	?_Mylast@?$_Vector_alloc@U?$_Vec_base_types@HV?$allocator@H@std@@@std@@@std@@QBEABQAHXZ
	?_Mylast@?$_Vector_alloc@U?$_Vec_base_types@IV?$allocator@I@std@@@std@@@std@@QAEAAPAIXZ
	?_Mylast@?$_Vector_alloc@U?$_Vec_base_types@IV?$allocator@I@std@@@std@@@std@@QBEABQAIXZ
	?_Mylast@?$_Vector_alloc@U?$_Vec_base_types@KV?$allocator@K@std@@@std@@@std@@QAEAAPAKXZ
	?_Mylast@?$_Vector_alloc@U?$_Vec_base_types@KV?$allocator@K@std@@@std@@@std@@QBEABQAKXZ
	?_Mylast@?$_Vector_alloc@U?$_Vec_base_types@PAVGlyph@BookEngine@@V?$allocator@PAVGlyph@BookEngine@@@std@@@std@@@std@@QAEAAPAPAVGlyph@BookEngine@@XZ
	?_Mylast@?$_Vector_alloc@U?$_Vec_base_types@PAVGlyph@BookEngine@@V?$allocator@PAVGlyph@BookEngine@@@std@@@std@@@std@@QBEABQAPAVGlyph@BookEngine@@XZ
	?_Mylast@?$_Vector_alloc@U?$_Vec_base_types@PAVIScreen@BookEngine@@V?$allocator@PAVIScreen@BookEngine@@@std@@@std@@@std@@QAEAAPAPAVIScreen@BookEngine@@XZ
	?_Mylast@?$_Vector_alloc@U?$_Vec_base_types@PAVIScreen@BookEngine@@V?$allocator@PAVIScreen@BookEngine@@@std@@@std@@@std@@QBEABQAPAVIScreen@BookEngine@@XZ
	?_Mylast@?$_Vector_alloc@U?$_Vec_base_types@PAVParticleBatch2D@BookEngine@@V?$allocator@PAVParticleBatch2D@BookEngine@@@std@@@std@@@std@@QAEAAPAPAVParticleBatch2D@BookEngine@@XZ
	?_Mylast@?$_Vector_alloc@U?$_Vec_base_types@PAVParticleBatch2D@BookEngine@@V?$allocator@PAVParticleBatch2D@BookEngine@@@std@@@std@@@std@@QBEABQAPAVParticleBatch2D@BookEngine@@XZ
	?_Mylast@?$_Vector_alloc@U?$_Vec_base_types@U?$tvec2@M$0A@@glm@@V?$allocator@U?$tvec2@M$0A@@glm@@@std@@@std@@@std@@QAEAAPAU?$tvec2@M$0A@@glm@@XZ
	?_Mylast@?$_Vector_alloc@U?$_Vec_base_types@U?$tvec2@M$0A@@glm@@V?$allocator@U?$tvec2@M$0A@@glm@@@std@@@std@@@std@@QBEABQAU?$tvec2@M$0A@@glm@@XZ
	?_Mylast@?$_Vector_alloc@U?$_Vec_base_types@U?$tvec3@M$0A@@glm@@V?$allocator@U?$tvec3@M$0A@@glm@@@std@@@std@@@std@@QAEAAPAU?$tvec3@M$0A@@glm@@XZ
	?_Mylast@?$_Vector_alloc@U?$_Vec_base_types@U?$tvec3@M$0A@@glm@@V?$allocator@U?$tvec3@M$0A@@glm@@@std@@@std@@@std@@QBEABQAU?$tvec3@M$0A@@glm@@XZ
	?_Mylast@?$_Vector_alloc@U?$_Vec_base_types@U?$tvec4@M$0A@@glm@@V?$allocator@U?$tvec4@M$0A@@glm@@@std@@@std@@@std@@QAEAAPAU?$tvec4@M$0A@@glm@@XZ
	?_Mylast@?$_Vector_alloc@U?$_Vec_base_types@U?$tvec4@M$0A@@glm@@V?$allocator@U?$tvec4@M$0A@@glm@@@std@@@std@@@std@@QBEABQAU?$tvec4@M$0A@@glm@@XZ
	?_Mylast@?$_Vector_alloc@U?$_Vec_base_types@UVertex2D@BookEngine@@V?$allocator@UVertex2D@BookEngine@@@std@@@std@@@std@@QAEAAPAUVertex2D@BookEngine@@XZ
	?_Mylast@?$_Vector_alloc@U?$_Vec_base_types@UVertex2D@BookEngine@@V?$allocator@UVertex2D@BookEngine@@@std@@@std@@@std@@QBEABQAUVertex2D@BookEngine@@XZ
	?_Mylast@?$_Vector_alloc@U?$_Vec_base_types@V?$_List_unchecked_iterator@V?$_List_val@U?$_List_simple_types@U?$pair@$$CBI_N@std@@@std@@@std@@@std@@V?$allocator@V?$_List_unchecked_iterator@V?$_List_val@U?$_List_simple_types@U?$pair@$$CBI_N@std@@@std@@@std@@@std@@@2@@std@@@std@@QAEAAPAV?$_List_unchecked_iterator@V?$_List_val@U?$_List_simple_types@U?$pair@$$CBI_N@std@@@std@@@std@@@2@XZ
	?_Mylast@?$_Vector_alloc@U?$_Vec_base_types@V?$_List_unchecked_iterator@V?$_List_val@U?$_List_simple_types@U?$pair@$$CBI_N@std@@@std@@@std@@@std@@V?$allocator@V?$_List_unchecked_iterator@V?$_List_val@U?$_List_simple_types@U?$pair@$$CBI_N@std@@@std@@@std@@@std@@@2@@std@@@std@@QBEABQAV?$_List_unchecked_iterator@V?$_List_val@U?$_List_simple_types@U?$pair@$$CBI_N@std@@@std@@@std@@@2@XZ
	?_Mylast@?$_Vector_alloc@U?$_Vec_base_types@VBatchRenderr@BookEngine@@V?$allocator@VBatchRenderr@BookEngine@@@std@@@std@@@std@@QAEAAPAVBatchRenderr@BookEngine@@XZ
	?_Mylast@?$_Vector_alloc@U?$_Vec_base_types@VBatchRenderr@BookEngine@@V?$allocator@VBatchRenderr@BookEngine@@@std@@@std@@@std@@QBEABQAVBatchRenderr@BookEngine@@XZ
	?_Mylast@?$_Vector_alloc@U?$_Vec_base_types@VGlyph@BookEngine@@V?$allocator@VGlyph@BookEngine@@@std@@@std@@@std@@QAEAAPAVGlyph@BookEngine@@XZ
	?_Mylast@?$_Vector_alloc@U?$_Vec_base_types@VGlyph@BookEngine@@V?$allocator@VGlyph@BookEngine@@@std@@@std@@@std@@QBEABQAVGlyph@BookEngine@@XZ
	?_Myproxy@?$_List_alloc@U?$_List_base_types@U?$pair@$$CBI_N@std@@V?$allocator@U?$pair@$$CBI_N@std@@@2@@std@@@std@@QAEAAPAU_Container_proxy@2@XZ
	?_Myproxy@?$_String_alloc@U?$_String_base_types@DV?$allocator@D@std@@@std@@@std@@QAEAAPAU_Container_proxy@2@XZ
	?_Myproxy@?$_Tree_comp_alloc@V?$_Tmap_traits@V?$basic_string@DU?$char_traits@D@std@@V?$allocator@D@2@@std@@PAUMix_Chunk@@U?$less@V?$basic_string@DU?$char_traits@D@std@@V?$allocator@D@2@@std@@@2@V?$allocator@U?$pair@$$CBV?$basic_string@DU?$char_traits@D@std@@V?$allocator@D@2@@std@@PAUMix_Chunk@@@std@@@2@$0A@@std@@@std@@QAEAAPAU_Container_proxy@2@XZ
	?_Myproxy@?$_Tree_comp_alloc@V?$_Tmap_traits@V?$basic_string@DU?$char_traits@D@std@@V?$allocator@D@2@@std@@PAU_Mix_Music@@U?$less@V?$basic_string@DU?$char_traits@D@std@@V?$allocator@D@2@@std@@@2@V?$allocator@U?$pair@$$CBV?$basic_string@DU?$char_traits@D@std@@V?$allocator@D@2@@std@@PAU_Mix_Music@@@std@@@2@$0A@@std@@@std@@QAEAAPAU_Container_proxy@2@XZ
	?_Myproxy@?$_Tree_comp_alloc@V?$_Tmap_traits@V?$basic_string@DU?$char_traits@D@std@@V?$allocator@D@2@@std@@UGLTexture@BookEngine@@U?$less@V?$basic_string@DU?$char_traits@D@std@@V?$allocator@D@2@@std@@@2@V?$allocator@U?$pair@$$CBV?$basic_string@DU?$char_traits@D@std@@V?$allocator@D@2@@std@@UGLTexture@BookEngine@@@std@@@2@$0A@@std@@@std@@QAEAAPAU_Container_proxy@2@XZ
	?_Myproxy@?$_Vector_alloc@U?$_Vec_base_types@DV?$allocator@D@std@@@std@@@std@@QAEAAPAU_Container_proxy@2@XZ
	?_Myproxy@?$_Vector_alloc@U?$_Vec_base_types@EV?$allocator@E@std@@@std@@@std@@QAEAAPAU_Container_proxy@2@XZ
	?_Myproxy@?$_Vector_alloc@U?$_Vec_base_types@HV?$allocator@H@std@@@std@@@std@@QAEAAPAU_Container_proxy@2@XZ
	?_Myproxy@?$_Vector_alloc@U?$_Vec_base_types@IV?$allocator@I@std@@@std@@@std@@QAEAAPAU_Container_proxy@2@XZ
	?_Myproxy@?$_Vector_alloc@U?$_Vec_base_types@KV?$allocator@K@std@@@std@@@std@@QAEAAPAU_Container_proxy@2@XZ
	?_Myproxy@?$_Vector_alloc@U?$_Vec_base_types@PAVGlyph@BookEngine@@V?$allocator@PAVGlyph@BookEngine@@@std@@@std@@@std@@QAEAAPAU_Container_proxy@2@XZ
	?_Myproxy@?$_Vector_alloc@U?$_Vec_base_types@PAVIScreen@BookEngine@@V?$allocator@PAVIScreen@BookEngine@@@std@@@std@@@std@@QAEAAPAU_Container_proxy@2@XZ
	?_Myproxy@?$_Vector_alloc@U?$_Vec_base_types@PAVParticleBatch2D@BookEngine@@V?$allocator@PAVParticleBatch2D@BookEngine@@@std@@@std@@@std@@QAEAAPAU_Container_proxy@2@XZ
	?_Myproxy@?$_Vector_alloc@U?$_Vec_base_types@U?$tvec2@M$0A@@glm@@V?$allocator@U?$tvec2@M$0A@@glm@@@std@@@std@@@std@@QAEAAPAU_Container_proxy@2@XZ
	?_Myproxy@?$_Vector_alloc@U?$_Vec_base_types@U?$tvec3@M$0A@@glm@@V?$allocator@U?$tvec3@M$0A@@glm@@@std@@@std@@@std@@QAEAAPAU_Container_proxy@2@XZ
	?_Myproxy@?$_Vector_alloc@U?$_Vec_base_types@U?$tvec4@M$0A@@glm@@V?$allocator@U?$tvec4@M$0A@@glm@@@std@@@std@@@std@@QAEAAPAU_Container_proxy@2@XZ
	?_Myproxy@?$_Vector_alloc@U?$_Vec_base_types@UVertex2D@BookEngine@@V?$allocator@UVertex2D@BookEngine@@@std@@@std@@@std@@QAEAAPAU_Container_proxy@2@XZ
	?_Myproxy@?$_Vector_alloc@U?$_Vec_base_types@V?$_List_unchecked_iterator@V?$_List_val@U?$_List_simple_types@U?$pair@$$CBI_N@std@@@std@@@std@@@std@@V?$allocator@V?$_List_unchecked_iterator@V?$_List_val@U?$_List_simple_types@U?$pair@$$CBI_N@std@@@std@@@std@@@std@@@2@@std@@@std@@QAEAAPAU_Container_proxy@2@XZ
	?_Myproxy@?$_Vector_alloc@U?$_Vec_base_types@VBatchRenderr@BookEngine@@V?$allocator@VBatchRenderr@BookEngine@@@std@@@std@@@std@@QAEAAPAU_Container_proxy@2@XZ
	?_Myproxy@?$_Vector_alloc@U?$_Vec_base_types@VGlyph@BookEngine@@V?$allocator@VGlyph@BookEngine@@@std@@@std@@@std@@QAEAAPAU_Container_proxy@2@XZ
	?_Myptr@?$_String_val@U?$_Simple_types@D@std@@@std@@QAEPADXZ
	?_Myptr@?$_String_val@U?$_Simple_types@D@std@@@std@@QBEPBDXZ
	?_Myptr@?$_Unique_ptr_base@VScreenList@BookEngine@@U?$default_delete@VScreenList@BookEngine@@@std@@@std@@QAEAAPAVScreenList@BookEngine@@XZ
	?_Myptr@?$_Unique_ptr_base@VScreenList@BookEngine@@U?$default_delete@VScreenList@BookEngine@@@std@@@std@@QBEABQAVScreenList@BookEngine@@XZ
	?_Mysize@?$_List_alloc@U?$_List_base_types@U?$pair@$$CBI_N@std@@V?$allocator@U?$pair@$$CBI_N@std@@@2@@std@@@std@@QAEAAIXZ
	?_Mysize@?$_List_alloc@U?$_List_base_types@U?$pair@$$CBI_N@std@@V?$allocator@U?$pair@$$CBI_N@std@@@2@@std@@@std@@QBEABIXZ
	?_Mysize@?$_Tree_comp_alloc@V?$_Tmap_traits@V?$basic_string@DU?$char_traits@D@std@@V?$allocator@D@2@@std@@PAUMix_Chunk@@U?$less@V?$basic_string@DU?$char_traits@D@std@@V?$allocator@D@2@@std@@@2@V?$allocator@U?$pair@$$CBV?$basic_string@DU?$char_traits@D@std@@V?$allocator@D@2@@std@@PAUMix_Chunk@@@std@@@2@$0A@@std@@@std@@QAEAAIXZ
	?_Mysize@?$_Tree_comp_alloc@V?$_Tmap_traits@V?$basic_string@DU?$char_traits@D@std@@V?$allocator@D@2@@std@@PAUMix_Chunk@@U?$less@V?$basic_string@DU?$char_traits@D@std@@V?$allocator@D@2@@std@@@2@V?$allocator@U?$pair@$$CBV?$basic_string@DU?$char_traits@D@std@@V?$allocator@D@2@@std@@PAUMix_Chunk@@@std@@@2@$0A@@std@@@std@@QBEABIXZ
	?_Mysize@?$_Tree_comp_alloc@V?$_Tmap_traits@V?$basic_string@DU?$char_traits@D@std@@V?$allocator@D@2@@std@@PAU_Mix_Music@@U?$less@V?$basic_string@DU?$char_traits@D@std@@V?$allocator@D@2@@std@@@2@V?$allocator@U?$pair@$$CBV?$basic_string@DU?$char_traits@D@std@@V?$allocator@D@2@@std@@PAU_Mix_Music@@@std@@@2@$0A@@std@@@std@@QAEAAIXZ
	?_Mysize@?$_Tree_comp_alloc@V?$_Tmap_traits@V?$basic_string@DU?$char_traits@D@std@@V?$allocator@D@2@@std@@PAU_Mix_Music@@U?$less@V?$basic_string@DU?$char_traits@D@std@@V?$allocator@D@2@@std@@@2@V?$allocator@U?$pair@$$CBV?$basic_string@DU?$char_traits@D@std@@V?$allocator@D@2@@std@@PAU_Mix_Music@@@std@@@2@$0A@@std@@@std@@QBEABIXZ
	?_Mysize@?$_Tree_comp_alloc@V?$_Tmap_traits@V?$basic_string@DU?$char_traits@D@std@@V?$allocator@D@2@@std@@UGLTexture@BookEngine@@U?$less@V?$basic_string@DU?$char_traits@D@std@@V?$allocator@D@2@@std@@@2@V?$allocator@U?$pair@$$CBV?$basic_string@DU?$char_traits@D@std@@V?$allocator@D@2@@std@@UGLTexture@BookEngine@@@std@@@2@$0A@@std@@@std@@QAEAAIXZ
	?_Orphan_all@?$_List_alloc@U?$_List_base_types@U?$pair@$$CBI_N@std@@V?$allocator@U?$pair@$$CBI_N@std@@@2@@std@@@std@@QAEXXZ
	?_Orphan_all@?$_String_alloc@U?$_String_base_types@DV?$allocator@D@std@@@std@@@std@@QAEXXZ
	?_Orphan_all@?$_Tree_comp_alloc@V?$_Tmap_traits@V?$basic_string@DU?$char_traits@D@std@@V?$allocator@D@2@@std@@PAUMix_Chunk@@U?$less@V?$basic_string@DU?$char_traits@D@std@@V?$allocator@D@2@@std@@@2@V?$allocator@U?$pair@$$CBV?$basic_string@DU?$char_traits@D@std@@V?$allocator@D@2@@std@@PAUMix_Chunk@@@std@@@2@$0A@@std@@@std@@QAEXXZ
	?_Orphan_all@?$_Tree_comp_alloc@V?$_Tmap_traits@V?$basic_string@DU?$char_traits@D@std@@V?$allocator@D@2@@std@@PAU_Mix_Music@@U?$less@V?$basic_string@DU?$char_traits@D@std@@V?$allocator@D@2@@std@@@2@V?$allocator@U?$pair@$$CBV?$basic_string@DU?$char_traits@D@std@@V?$allocator@D@2@@std@@PAU_Mix_Music@@@std@@@2@$0A@@std@@@std@@QAEXXZ
	?_Orphan_all@?$_Tree_comp_alloc@V?$_Tmap_traits@V?$basic_string@DU?$char_traits@D@std@@V?$allocator@D@2@@std@@UGLTexture@BookEngine@@U?$less@V?$basic_string@DU?$char_traits@D@std@@V?$allocator@D@2@@std@@@2@V?$allocator@U?$pair@$$CBV?$basic_string@DU?$char_traits@D@std@@V?$allocator@D@2@@std@@UGLTexture@BookEngine@@@std@@@2@$0A@@std@@@std@@QAEXXZ
	?_Orphan_all@?$_Vector_alloc@U?$_Vec_base_types@DV?$allocator@D@std@@@std@@@std@@QAEXXZ
	?_Orphan_all@?$_Vector_alloc@U?$_Vec_base_types@EV?$allocator@E@std@@@std@@@std@@QAEXXZ
	?_Orphan_all@?$_Vector_alloc@U?$_Vec_base_types@HV?$allocator@H@std@@@std@@@std@@QAEXXZ
	?_Orphan_all@?$_Vector_alloc@U?$_Vec_base_types@IV?$allocator@I@std@@@std@@@std@@QAEXXZ
	?_Orphan_all@?$_Vector_alloc@U?$_Vec_base_types@KV?$allocator@K@std@@@std@@@std@@QAEXXZ
	?_Orphan_all@?$_Vector_alloc@U?$_Vec_base_types@PAVGlyph@BookEngine@@V?$allocator@PAVGlyph@BookEngine@@@std@@@std@@@std@@QAEXXZ
	?_Orphan_all@?$_Vector_alloc@U?$_Vec_base_types@PAVIScreen@BookEngine@@V?$allocator@PAVIScreen@BookEngine@@@std@@@std@@@std@@QAEXXZ
	?_Orphan_all@?$_Vector_alloc@U?$_Vec_base_types@PAVParticleBatch2D@BookEngine@@V?$allocator@PAVParticleBatch2D@BookEngine@@@std@@@std@@@std@@QAEXXZ
	?_Orphan_all@?$_Vector_alloc@U?$_Vec_base_types@U?$tvec2@M$0A@@glm@@V?$allocator@U?$tvec2@M$0A@@glm@@@std@@@std@@@std@@QAEXXZ
	?_Orphan_all@?$_Vector_alloc@U?$_Vec_base_types@U?$tvec3@M$0A@@glm@@V?$allocator@U?$tvec3@M$0A@@glm@@@std@@@std@@@std@@QAEXXZ
	?_Orphan_all@?$_Vector_alloc@U?$_Vec_base_types@U?$tvec4@M$0A@@glm@@V?$allocator@U?$tvec4@M$0A@@glm@@@std@@@std@@@std@@QAEXXZ
	?_Orphan_all@?$_Vector_alloc@U?$_Vec_base_types@UVertex2D@BookEngine@@V?$allocator@UVertex2D@BookEngine@@@std@@@std@@@std@@QAEXXZ
	?_Orphan_all@?$_Vector_alloc@U?$_Vec_base_types@V?$_List_unchecked_iterator@V?$_List_val@U?$_List_simple_types@U?$pair@$$CBI_N@std@@@std@@@std@@@std@@V?$allocator@V?$_List_unchecked_iterator@V?$_List_val@U?$_List_simple_types@U?$pair@$$CBI_N@std@@@std@@@std@@@std@@@2@@std@@@std@@QAEXXZ
	?_Orphan_all@?$_Vector_alloc@U?$_Vec_base_types@VBatchRenderr@BookEngine@@V?$allocator@VBatchRenderr@BookEngine@@@std@@@std@@@std@@QAEXXZ
	?_Orphan_all@?$_Vector_alloc@U?$_Vec_base_types@VGlyph@BookEngine@@V?$allocator@VGlyph@BookEngine@@@std@@@std@@@std@@QAEXXZ
	?_Orphan_all@_Container_base12@std@@QAEXXZ
	?_Orphan_me@_Iterator_base12@std@@QAEXXZ
	?_Orphan_ptr@?$_Tree@V?$_Tmap_traits@V?$basic_string@DU?$char_traits@D@std@@V?$allocator@D@2@@std@@PAUMix_Chunk@@U?$less@V?$basic_string@DU?$char_traits@D@std@@V?$allocator@D@2@@std@@@2@V?$allocator@U?$pair@$$CBV?$basic_string@DU?$char_traits@D@std@@V?$allocator@D@2@@std@@PAUMix_Chunk@@@std@@@2@$0A@@std@@@std@@IAEXPAU?$_Tree_node@U?$pair@$$CBV?$basic_string@DU?$char_traits@D@std@@V?$allocator@D@2@@std@@PAUMix_Chunk@@@std@@PAX@2@@Z
	?_Orphan_ptr@?$_Tree@V?$_Tmap_traits@V?$basic_string@DU?$char_traits@D@std@@V?$allocator@D@2@@std@@PAU_Mix_Music@@U?$less@V?$basic_string@DU?$char_traits@D@std@@V?$allocator@D@2@@std@@@2@V?$allocator@U?$pair@$$CBV?$basic_string@DU?$char_traits@D@std@@V?$allocator@D@2@@std@@PAU_Mix_Music@@@std@@@2@$0A@@std@@@std@@IAEXPAU?$_Tree_node@U?$pair@$$CBV?$basic_string@DU?$char_traits@D@std@@V?$allocator@D@2@@std@@PAU_Mix_Music@@@std@@PAX@2@@Z
	?_Orphan_ptr@?$_Tree@V?$_Tmap_traits@V?$basic_string@DU?$char_traits@D@std@@V?$allocator@D@2@@std@@UGLTexture@BookEngine@@U?$less@V?$basic_string@DU?$char_traits@D@std@@V?$allocator@D@2@@std@@@2@V?$allocator@U?$pair@$$CBV?$basic_string@DU?$char_traits@D@std@@V?$allocator@D@2@@std@@UGLTexture@BookEngine@@@std@@@2@$0A@@std@@@std@@IAEXPAU?$_Tree_node@U?$pair@$$CBV?$basic_string@DU?$char_traits@D@std@@V?$allocator@D@2@@std@@UGLTexture@BookEngine@@@std@@PAX@2@@Z
	?_Orphan_ptr@?$list@U?$pair@$$CBI_N@std@@V?$allocator@U?$pair@$$CBI_N@std@@@2@@std@@QAEXPAU?$_List_node@U?$pair@$$CBI_N@std@@PAX@2@@Z
	?_Orphan_range@?$vector@EV?$allocator@E@std@@@std@@ABEXPAE0@Z
	?_Orphan_range@?$vector@HV?$allocator@H@std@@@std@@ABEXPAH0@Z
	?_Orphan_range@?$vector@IV?$allocator@I@std@@@std@@ABEXPAI0@Z
	?_Orphan_range@?$vector@KV?$allocator@K@std@@@std@@ABEXPAK0@Z
	?_Orphan_range@?$vector@PAVGlyph@BookEngine@@V?$allocator@PAVGlyph@BookEngine@@@std@@@std@@ABEXPAPAVGlyph@BookEngine@@0@Z
	?_Orphan_range@?$vector@PAVIScreen@BookEngine@@V?$allocator@PAVIScreen@BookEngine@@@std@@@std@@ABEXPAPAVIScreen@BookEngine@@0@Z
	?_Orphan_range@?$vector@PAVParticleBatch2D@BookEngine@@V?$allocator@PAVParticleBatch2D@BookEngine@@@std@@@std@@ABEXPAPAVParticleBatch2D@BookEngine@@0@Z
	?_Orphan_range@?$vector@U?$tvec2@M$0A@@glm@@V?$allocator@U?$tvec2@M$0A@@glm@@@std@@@std@@ABEXPAU?$tvec2@M$0A@@glm@@0@Z
	?_Orphan_range@?$vector@U?$tvec3@M$0A@@glm@@V?$allocator@U?$tvec3@M$0A@@glm@@@std@@@std@@ABEXPAU?$tvec3@M$0A@@glm@@0@Z
	?_Orphan_range@?$vector@U?$tvec4@M$0A@@glm@@V?$allocator@U?$tvec4@M$0A@@glm@@@std@@@std@@ABEXPAU?$tvec4@M$0A@@glm@@0@Z
	?_Orphan_range@?$vector@UVertex2D@BookEngine@@V?$allocator@UVertex2D@BookEngine@@@std@@@std@@ABEXPAUVertex2D@BookEngine@@0@Z
	?_Orphan_range@?$vector@VBatchRenderr@BookEngine@@V?$allocator@VBatchRenderr@BookEngine@@@std@@@std@@ABEXPAVBatchRenderr@BookEngine@@0@Z
	?_Orphan_range@?$vector@VGlyph@BookEngine@@V?$allocator@VGlyph@BookEngine@@@std@@@std@@ABEXPAVGlyph@BookEngine@@0@Z
	?_Reallocate_exactly@?$vector@V?$_List_unchecked_iterator@V?$_List_val@U?$_List_simple_types@U?$pair@$$CBI_N@std@@@std@@@std@@@std@@V?$allocator@V?$_List_unchecked_iterator@V?$_List_val@U?$_List_simple_types@U?$pair@$$CBI_N@std@@@std@@@std@@@std@@@2@@std@@AAEXI@Z
	?_Reinsert@?$_Hash@V?$_Umap_traits@I_NV?$_Uhash_compare@IU?$hash@I@std@@U?$equal_to@I@2@@std@@V?$allocator@U?$pair@$$CBI_N@std@@@2@$0A@@std@@@std@@IAEXXZ
	?_Reset_back@?$basic_filebuf@DU?$char_traits@D@std@@@std@@AAEXXZ
	?_Reset_copy@?$_Func_class@XAAVParticle2D@BookEngine@@M@std@@IAEXABV12@@Z
	?_Reset_move@?$_Func_class@XAAVParticle2D@BookEngine@@M@std@@IAEX$$QAV12@@Z
	?_Rmost@?$_Tree@V?$_Tmap_traits@V?$basic_string@DU?$char_traits@D@std@@V?$allocator@D@2@@std@@PAUMix_Chunk@@U?$less@V?$basic_string@DU?$char_traits@D@std@@V?$allocator@D@2@@std@@@2@V?$allocator@U?$pair@$$CBV?$basic_string@DU?$char_traits@D@std@@V?$allocator@D@2@@std@@PAUMix_Chunk@@@std@@@2@$0A@@std@@@std@@IBEAAPAU?$_Tree_node@U?$pair@$$CBV?$basic_string@DU?$char_traits@D@std@@V?$allocator@D@2@@std@@PAUMix_Chunk@@@std@@PAX@2@XZ
	?_Rmost@?$_Tree@V?$_Tmap_traits@V?$basic_string@DU?$char_traits@D@std@@V?$allocator@D@2@@std@@PAU_Mix_Music@@U?$less@V?$basic_string@DU?$char_traits@D@std@@V?$allocator@D@2@@std@@@2@V?$allocator@U?$pair@$$CBV?$basic_string@DU?$char_traits@D@std@@V?$allocator@D@2@@std@@PAU_Mix_Music@@@std@@@2@$0A@@std@@@std@@IBEAAPAU?$_Tree_node@U?$pair@$$CBV?$basic_string@DU?$char_traits@D@std@@V?$allocator@D@2@@std@@PAU_Mix_Music@@@std@@PAX@2@XZ
	?_Rmost@?$_Tree@V?$_Tmap_traits@V?$basic_string@DU?$char_traits@D@std@@V?$allocator@D@2@@std@@UGLTexture@BookEngine@@U?$less@V?$basic_string@DU?$char_traits@D@std@@V?$allocator@D@2@@std@@@2@V?$allocator@U?$pair@$$CBV?$basic_string@DU?$char_traits@D@std@@V?$allocator@D@2@@std@@UGLTexture@BookEngine@@@std@@@2@$0A@@std@@@std@@IBEAAPAU?$_Tree_node@U?$pair@$$CBV?$basic_string@DU?$char_traits@D@std@@V?$allocator@D@2@@std@@UGLTexture@BookEngine@@@std@@PAX@2@XZ
	?_Root@?$_Tree@V?$_Tmap_traits@V?$basic_string@DU?$char_traits@D@std@@V?$allocator@D@2@@std@@PAUMix_Chunk@@U?$less@V?$basic_string@DU?$char_traits@D@std@@V?$allocator@D@2@@std@@@2@V?$allocator@U?$pair@$$CBV?$basic_string@DU?$char_traits@D@std@@V?$allocator@D@2@@std@@PAUMix_Chunk@@@std@@@2@$0A@@std@@@std@@IBEAAPAU?$_Tree_node@U?$pair@$$CBV?$basic_string@DU?$char_traits@D@std@@V?$allocator@D@2@@std@@PAUMix_Chunk@@@std@@PAX@2@XZ
	?_Root@?$_Tree@V?$_Tmap_traits@V?$basic_string@DU?$char_traits@D@std@@V?$allocator@D@2@@std@@PAU_Mix_Music@@U?$less@V?$basic_string@DU?$char_traits@D@std@@V?$allocator@D@2@@std@@@2@V?$allocator@U?$pair@$$CBV?$basic_string@DU?$char_traits@D@std@@V?$allocator@D@2@@std@@PAU_Mix_Music@@@std@@@2@$0A@@std@@@std@@IBEAAPAU?$_Tree_node@U?$pair@$$CBV?$basic_string@DU?$char_traits@D@std@@V?$allocator@D@2@@std@@PAU_Mix_Music@@@std@@PAX@2@XZ
	?_Root@?$_Tree@V?$_Tmap_traits@V?$basic_string@DU?$char_traits@D@std@@V?$allocator@D@2@@std@@UGLTexture@BookEngine@@U?$less@V?$basic_string@DU?$char_traits@D@std@@V?$allocator@D@2@@std@@@2@V?$allocator@U?$pair@$$CBV?$basic_string@DU?$char_traits@D@std@@V?$allocator@D@2@@std@@UGLTexture@BookEngine@@@std@@@2@$0A@@std@@@std@@IBEAAPAU?$_Tree_node@U?$pair@$$CBV?$basic_string@DU?$char_traits@D@std@@V?$allocator@D@2@@std@@UGLTexture@BookEngine@@@std@@PAX@2@XZ
	?_Rrotate@?$_Tree@V?$_Tmap_traits@V?$basic_string@DU?$char_traits@D@std@@V?$allocator@D@2@@std@@PAUMix_Chunk@@U?$less@V?$basic_string@DU?$char_traits@D@std@@V?$allocator@D@2@@std@@@2@V?$allocator@U?$pair@$$CBV?$basic_string@DU?$char_traits@D@std@@V?$allocator@D@2@@std@@PAUMix_Chunk@@@std@@@2@$0A@@std@@@std@@IAEXPAU?$_Tree_node@U?$pair@$$CBV?$basic_string@DU?$char_traits@D@std@@V?$allocator@D@2@@std@@PAUMix_Chunk@@@std@@PAX@2@@Z
	?_Rrotate@?$_Tree@V?$_Tmap_traits@V?$basic_string@DU?$char_traits@D@std@@V?$allocator@D@2@@std@@PAU_Mix_Music@@U?$less@V?$basic_string@DU?$char_traits@D@std@@V?$allocator@D@2@@std@@@2@V?$allocator@U?$pair@$$CBV?$basic_string@DU?$char_traits@D@std@@V?$allocator@D@2@@std@@PAU_Mix_Music@@@std@@@2@$0A@@std@@@std@@IAEXPAU?$_Tree_node@U?$pair@$$CBV?$basic_string@DU?$char_traits@D@std@@V?$allocator@D@2@@std@@PAU_Mix_Music@@@std@@PAX@2@@Z
	?_Rrotate@?$_Tree@V?$_Tmap_traits@V?$basic_string@DU?$char_traits@D@std@@V?$allocator@D@2@@std@@UGLTexture@BookEngine@@U?$less@V?$basic_string@DU?$char_traits@D@std@@V?$allocator@D@2@@std@@@2@V?$allocator@U?$pair@$$CBV?$basic_string@DU?$char_traits@D@std@@V?$allocator@D@2@@std@@UGLTexture@BookEngine@@@std@@@2@$0A@@std@@@std@@IAEXPAU?$_Tree_node@U?$pair@$$CBV?$basic_string@DU?$char_traits@D@std@@V?$allocator@D@2@@std@@UGLTexture@BookEngine@@@std@@PAX@2@@Z
	?_Set@?$_Func_class@XAAVParticle2D@BookEngine@@M@std@@AAEXPAV?$_Func_base@XAAVParticle2D@BookEngine@@M@2@@Z
	?_Set_back@?$basic_filebuf@DU?$char_traits@D@std@@@std@@AAEXXZ
	?_Swap@?$_Func_class@XAAVParticle2D@BookEngine@@M@std@@IAEXAAV12@@Z
	?_Swap_all@?$_String_alloc@U?$_String_base_types@DV?$allocator@D@std@@@std@@@std@@QAEXAAV12@@Z
	?_Swap_all@_Container_base12@std@@QAEXAAU12@@Z
	?_Tidy@?$_Func_class@XAAVParticle2D@BookEngine@@M@std@@IAEXXZ
	?_Tidy@?$_Tree@V?$_Tmap_traits@V?$basic_string@DU?$char_traits@D@std@@V?$allocator@D@2@@std@@PAUMix_Chunk@@U?$less@V?$basic_string@DU?$char_traits@D@std@@V?$allocator@D@2@@std@@@2@V?$allocator@U?$pair@$$CBV?$basic_string@DU?$char_traits@D@std@@V?$allocator@D@2@@std@@PAUMix_Chunk@@@std@@@2@$0A@@std@@@std@@IAEXXZ
	?_Tidy@?$_Tree@V?$_Tmap_traits@V?$basic_string@DU?$char_traits@D@std@@V?$allocator@D@2@@std@@PAU_Mix_Music@@U?$less@V?$basic_string@DU?$char_traits@D@std@@V?$allocator@D@2@@std@@@2@V?$allocator@U?$pair@$$CBV?$basic_string@DU?$char_traits@D@std@@V?$allocator@D@2@@std@@PAU_Mix_Music@@@std@@@2@$0A@@std@@@std@@IAEXXZ
	?_Tidy@?$_Tree@V?$_Tmap_traits@V?$basic_string@DU?$char_traits@D@std@@V?$allocator@D@2@@std@@UGLTexture@BookEngine@@U?$less@V?$basic_string@DU?$char_traits@D@std@@V?$allocator@D@2@@std@@@2@V?$allocator@U?$pair@$$CBV?$basic_string@DU?$char_traits@D@std@@V?$allocator@D@2@@std@@UGLTexture@BookEngine@@@std@@@2@$0A@@std@@@std@@IAEXXZ
	?_Tidy@?$basic_stringbuf@DU?$char_traits@D@std@@V?$allocator@D@2@@std@@IAEXXZ
	?_Tidy@?$list@U?$pair@$$CBI_N@std@@V?$allocator@U?$pair@$$CBI_N@std@@@2@@std@@QAEXXZ
	?_Tidy@?$vector@DV?$allocator@D@std@@@std@@AAEXXZ
	?_Tidy@?$vector@EV?$allocator@E@std@@@std@@AAEXXZ
	?_Tidy@?$vector@HV?$allocator@H@std@@@std@@AAEXXZ
	?_Tidy@?$vector@IV?$allocator@I@std@@@std@@AAEXXZ
	?_Tidy@?$vector@KV?$allocator@K@std@@@std@@AAEXXZ
	?_Tidy@?$vector@PAVGlyph@BookEngine@@V?$allocator@PAVGlyph@BookEngine@@@std@@@std@@AAEXXZ
	?_Tidy@?$vector@PAVIScreen@BookEngine@@V?$allocator@PAVIScreen@BookEngine@@@std@@@std@@AAEXXZ
	?_Tidy@?$vector@PAVParticleBatch2D@BookEngine@@V?$allocator@PAVParticleBatch2D@BookEngine@@@std@@@std@@AAEXXZ
	?_Tidy@?$vector@U?$tvec2@M$0A@@glm@@V?$allocator@U?$tvec2@M$0A@@glm@@@std@@@std@@AAEXXZ
	?_Tidy@?$vector@U?$tvec3@M$0A@@glm@@V?$allocator@U?$tvec3@M$0A@@glm@@@std@@@std@@AAEXXZ
	?_Tidy@?$vector@UVertex2D@BookEngine@@V?$allocator@UVertex2D@BookEngine@@@std@@@std@@AAEXXZ
	?_Tidy@?$vector@V?$_List_unchecked_iterator@V?$_List_val@U?$_List_simple_types@U?$pair@$$CBI_N@std@@@std@@@std@@@std@@V?$allocator@V?$_List_unchecked_iterator@V?$_List_val@U?$_List_simple_types@U?$pair@$$CBI_N@std@@@std@@@std@@@std@@@2@@std@@AAEXXZ
	?_Tidy@?$vector@VBatchRenderr@BookEngine@@V?$allocator@VBatchRenderr@BookEngine@@@std@@@std@@AAEXXZ
	?_Tidy@?$vector@VGlyph@BookEngine@@V?$allocator@VGlyph@BookEngine@@@std@@@std@@AAEXXZ
	?_Tidy_deallocate@?$basic_string@DU?$char_traits@D@std@@V?$allocator@D@2@@std@@QAEXXZ
	?_Tidy_init@?$basic_string@DU?$char_traits@D@std@@V?$allocator@D@2@@std@@QAEXXZ
	?_Udefault@?$vector@DV?$allocator@D@std@@@std@@AAEPADPADI@Z
	?_Udefault@?$vector@EV?$allocator@E@std@@@std@@AAEPAEPAEI@Z
	?_Udefault@?$vector@KV?$allocator@K@std@@@std@@AAEPAKPAKI@Z
	?_Udefault@?$vector@PAVGlyph@BookEngine@@V?$allocator@PAVGlyph@BookEngine@@@std@@@std@@AAEPAPAVGlyph@BookEngine@@PAPAV34@I@Z
	?_Udefault@?$vector@PAVIScreen@BookEngine@@V?$allocator@PAVIScreen@BookEngine@@@std@@@std@@AAEPAPAVIScreen@BookEngine@@PAPAV34@I@Z
	?_Udefault@?$vector@UVertex2D@BookEngine@@V?$allocator@UVertex2D@BookEngine@@@std@@@std@@AAEPAUVertex2D@BookEngine@@PAU34@I@Z
	?_Ufill@?$vector@KV?$allocator@K@std@@@std@@AAEPAKPAKIABK@Z
	?_Ufill@?$vector@V?$_List_unchecked_iterator@V?$_List_val@U?$_List_simple_types@U?$pair@$$CBI_N@std@@@std@@@std@@@std@@V?$allocator@V?$_List_unchecked_iterator@V?$_List_val@U?$_List_simple_types@U?$pair@$$CBI_N@std@@@std@@@std@@@std@@@2@@std@@AAEPAV?$_List_unchecked_iterator@V?$_List_val@U?$_List_simple_types@U?$pair@$$CBI_N@std@@@std@@@std@@@2@PAV32@IABV32@@Z
	?_Umove@?$vector@EV?$allocator@E@std@@@std@@AAEPAEPAE00@Z
	?_Umove_if_noexcept1@?$vector@EV?$allocator@E@std@@@std@@AAEXPAE00U?$integral_constant@_N$00@2@@Z
	?_Umove_if_noexcept1@?$vector@HV?$allocator@H@std@@@std@@AAEXPAH00U?$integral_constant@_N$00@2@@Z
	?_Umove_if_noexcept1@?$vector@IV?$allocator@I@std@@@std@@AAEXPAI00U?$integral_constant@_N$00@2@@Z
	?_Umove_if_noexcept1@?$vector@KV?$allocator@K@std@@@std@@AAEXPAK00U?$integral_constant@_N$00@2@@Z
	?_Umove_if_noexcept1@?$vector@PAVGlyph@BookEngine@@V?$allocator@PAVGlyph@BookEngine@@@std@@@std@@AAEXPAPAVGlyph@BookEngine@@00U?$integral_constant@_N$00@2@@Z
	?_Umove_if_noexcept1@?$vector@PAVIScreen@BookEngine@@V?$allocator@PAVIScreen@BookEngine@@@std@@@std@@AAEXPAPAVIScreen@BookEngine@@00U?$integral_constant@_N$00@2@@Z
	?_Umove_if_noexcept1@?$vector@PAVParticleBatch2D@BookEngine@@V?$allocator@PAVParticleBatch2D@BookEngine@@@std@@@std@@AAEXPAPAVParticleBatch2D@BookEngine@@00U?$integral_constant@_N$00@2@@Z
	?_Umove_if_noexcept1@?$vector@U?$tvec2@M$0A@@glm@@V?$allocator@U?$tvec2@M$0A@@glm@@@std@@@std@@AAEXPAU?$tvec2@M$0A@@glm@@00U?$integral_constant@_N$00@2@@Z
	?_Umove_if_noexcept1@?$vector@U?$tvec3@M$0A@@glm@@V?$allocator@U?$tvec3@M$0A@@glm@@@std@@@std@@AAEXPAU?$tvec3@M$0A@@glm@@00U?$integral_constant@_N$00@2@@Z
	?_Umove_if_noexcept1@?$vector@U?$tvec4@M$0A@@glm@@V?$allocator@U?$tvec4@M$0A@@glm@@@std@@@std@@AAEXPAU?$tvec4@M$0A@@glm@@00U?$integral_constant@_N$00@2@@Z
	?_Umove_if_noexcept1@?$vector@UVertex2D@BookEngine@@V?$allocator@UVertex2D@BookEngine@@@std@@@std@@AAEXPAUVertex2D@BookEngine@@00U?$integral_constant@_N$00@2@@Z
	?_Umove_if_noexcept1@?$vector@V?$_List_unchecked_iterator@V?$_List_val@U?$_List_simple_types@U?$pair@$$CBI_N@std@@@std@@@std@@@std@@V?$allocator@V?$_List_unchecked_iterator@V?$_List_val@U?$_List_simple_types@U?$pair@$$CBI_N@std@@@std@@@std@@@std@@@2@@std@@AAEXPAV?$_List_unchecked_iterator@V?$_List_val@U?$_List_simple_types@U?$pair@$$CBI_N@std@@@std@@@std@@@2@00U?$integral_constant@_N$00@2@@Z
	?_Umove_if_noexcept1@?$vector@VBatchRenderr@BookEngine@@V?$allocator@VBatchRenderr@BookEngine@@@std@@@std@@AAEXPAVBatchRenderr@BookEngine@@00U?$integral_constant@_N$00@2@@Z
	?_Umove_if_noexcept1@?$vector@VGlyph@BookEngine@@V?$allocator@VGlyph@BookEngine@@@std@@@std@@AAEXPAVGlyph@BookEngine@@00U?$integral_constant@_N$00@2@@Z
	?_Umove_if_noexcept@?$vector@EV?$allocator@E@std@@@std@@AAEXPAE00@Z
	?_Umove_if_noexcept@?$vector@HV?$allocator@H@std@@@std@@AAEXPAH00@Z
	?_Umove_if_noexcept@?$vector@IV?$allocator@I@std@@@std@@AAEXPAI00@Z
	?_Umove_if_noexcept@?$vector@KV?$allocator@K@std@@@std@@AAEXPAK00@Z
	?_Umove_if_noexcept@?$vector@PAVGlyph@BookEngine@@V?$allocator@PAVGlyph@BookEngine@@@std@@@std@@AAEXPAPAVGlyph@BookEngine@@00@Z
	?_Umove_if_noexcept@?$vector@PAVIScreen@BookEngine@@V?$allocator@PAVIScreen@BookEngine@@@std@@@std@@AAEXPAPAVIScreen@BookEngine@@00@Z
	?_Umove_if_noexcept@?$vector@PAVParticleBatch2D@BookEngine@@V?$allocator@PAVParticleBatch2D@BookEngine@@@std@@@std@@AAEXPAPAVParticleBatch2D@BookEngine@@00@Z
	?_Umove_if_noexcept@?$vector@U?$tvec2@M$0A@@glm@@V?$allocator@U?$tvec2@M$0A@@glm@@@std@@@std@@AAEXPAU?$tvec2@M$0A@@glm@@00@Z
	?_Umove_if_noexcept@?$vector@U?$tvec3@M$0A@@glm@@V?$allocator@U?$tvec3@M$0A@@glm@@@std@@@std@@AAEXPAU?$tvec3@M$0A@@glm@@00@Z
	?_Umove_if_noexcept@?$vector@U?$tvec4@M$0A@@glm@@V?$allocator@U?$tvec4@M$0A@@glm@@@std@@@std@@AAEXPAU?$tvec4@M$0A@@glm@@00@Z
	?_Umove_if_noexcept@?$vector@UVertex2D@BookEngine@@V?$allocator@UVertex2D@BookEngine@@@std@@@std@@AAEXPAUVertex2D@BookEngine@@00@Z
	?_Umove_if_noexcept@?$vector@V?$_List_unchecked_iterator@V?$_List_val@U?$_List_simple_types@U?$pair@$$CBI_N@std@@@std@@@std@@@std@@V?$allocator@V?$_List_unchecked_iterator@V?$_List_val@U?$_List_simple_types@U?$pair@$$CBI_N@std@@@std@@@std@@@std@@@2@@std@@AAEXPAV?$_List_unchecked_iterator@V?$_List_val@U?$_List_simple_types@U?$pair@$$CBI_N@std@@@std@@@std@@@2@00@Z
	?_Umove_if_noexcept@?$vector@VBatchRenderr@BookEngine@@V?$allocator@VBatchRenderr@BookEngine@@@std@@@std@@AAEXPAVBatchRenderr@BookEngine@@00@Z
	?_Umove_if_noexcept@?$vector@VGlyph@BookEngine@@V?$allocator@VGlyph@BookEngine@@@std@@@std@@AAEXPAVGlyph@BookEngine@@00@Z
	?_Unchecked_begin@?$_Hash@V?$_Umap_traits@I_NV?$_Uhash_compare@IU?$hash@I@std@@U?$equal_to@I@2@@std@@V?$allocator@U?$pair@$$CBI_N@std@@@2@$0A@@std@@@std@@QAE?AV?$_List_unchecked_iterator@V?$_List_val@U?$_List_simple_types@U?$pair@$$CBI_N@std@@@std@@@std@@@2@XZ
	?_Unchecked_begin@?$_Tree@V?$_Tmap_traits@V?$basic_string@DU?$char_traits@D@std@@V?$allocator@D@2@@std@@PAUMix_Chunk@@U?$less@V?$basic_string@DU?$char_traits@D@std@@V?$allocator@D@2@@std@@@2@V?$allocator@U?$pair@$$CBV?$basic_string@DU?$char_traits@D@std@@V?$allocator@D@2@@std@@PAUMix_Chunk@@@std@@@2@$0A@@std@@@std@@QAE?AV?$_Tree_unchecked_iterator@V?$_Tree_val@U?$_Tree_simple_types@U?$pair@$$CBV?$basic_string@DU?$char_traits@D@std@@V?$allocator@D@2@@std@@PAUMix_Chunk@@@std@@@std@@@std@@@2@XZ
	?_Unchecked_begin@?$_Tree@V?$_Tmap_traits@V?$basic_string@DU?$char_traits@D@std@@V?$allocator@D@2@@std@@PAU_Mix_Music@@U?$less@V?$basic_string@DU?$char_traits@D@std@@V?$allocator@D@2@@std@@@2@V?$allocator@U?$pair@$$CBV?$basic_string@DU?$char_traits@D@std@@V?$allocator@D@2@@std@@PAU_Mix_Music@@@std@@@2@$0A@@std@@@std@@QAE?AV?$_Tree_unchecked_iterator@V?$_Tree_val@U?$_Tree_simple_types@U?$pair@$$CBV?$basic_string@DU?$char_traits@D@std@@V?$allocator@D@2@@std@@PAU_Mix_Music@@@std@@@std@@@std@@@2@XZ
	?_Unchecked_begin@?$list@U?$pair@$$CBI_N@std@@V?$allocator@U?$pair@$$CBI_N@std@@@2@@std@@QAE?AV?$_List_unchecked_iterator@V?$_List_val@U?$_List_simple_types@U?$pair@$$CBI_N@std@@@std@@@std@@@2@XZ
	?_Unchecked_begin@?$vector@PAVParticleBatch2D@BookEngine@@V?$allocator@PAVParticleBatch2D@BookEngine@@@std@@@std@@QAEPAPAVParticleBatch2D@BookEngine@@XZ
	?_Unchecked_end@?$_Hash@V?$_Umap_traits@I_NV?$_Uhash_compare@IU?$hash@I@std@@U?$equal_to@I@2@@std@@V?$allocator@U?$pair@$$CBI_N@std@@@2@$0A@@std@@@std@@QAE?AV?$_List_unchecked_iterator@V?$_List_val@U?$_List_simple_types@U?$pair@$$CBI_N@std@@@std@@@std@@@2@XZ
	?_Unchecked_end@?$_Tree@V?$_Tmap_traits@V?$basic_string@DU?$char_traits@D@std@@V?$allocator@D@2@@std@@PAUMix_Chunk@@U?$less@V?$basic_string@DU?$char_traits@D@std@@V?$allocator@D@2@@std@@@2@V?$allocator@U?$pair@$$CBV?$basic_string@DU?$char_traits@D@std@@V?$allocator@D@2@@std@@PAUMix_Chunk@@@std@@@2@$0A@@std@@@std@@QAE?AV?$_Tree_unchecked_iterator@V?$_Tree_val@U?$_Tree_simple_types@U?$pair@$$CBV?$basic_string@DU?$char_traits@D@std@@V?$allocator@D@2@@std@@PAUMix_Chunk@@@std@@@std@@@std@@@2@XZ
	?_Unchecked_end@?$_Tree@V?$_Tmap_traits@V?$basic_string@DU?$char_traits@D@std@@V?$allocator@D@2@@std@@PAU_Mix_Music@@U?$less@V?$basic_string@DU?$char_traits@D@std@@V?$allocator@D@2@@std@@@2@V?$allocator@U?$pair@$$CBV?$basic_string@DU?$char_traits@D@std@@V?$allocator@D@2@@std@@PAU_Mix_Music@@@std@@@2@$0A@@std@@@std@@QAE?AV?$_Tree_unchecked_iterator@V?$_Tree_val@U?$_Tree_simple_types@U?$pair@$$CBV?$basic_string@DU?$char_traits@D@std@@V?$allocator@D@2@@std@@PAU_Mix_Music@@@std@@@std@@@std@@@2@XZ
	?_Unchecked_end@?$list@U?$pair@$$CBI_N@std@@V?$allocator@U?$pair@$$CBI_N@std@@@2@@std@@QAE?AV?$_List_unchecked_iterator@V?$_List_val@U?$_List_simple_types@U?$pair@$$CBI_N@std@@@std@@@std@@@2@XZ
	?_Unchecked_end@?$vector@PAVParticleBatch2D@BookEngine@@V?$allocator@PAVParticleBatch2D@BookEngine@@@std@@@std@@QAEPAPAVParticleBatch2D@BookEngine@@XZ
	?_Unchecked_splice@?$list@U?$pair@$$CBI_N@std@@V?$allocator@U?$pair@$$CBI_N@std@@@2@@std@@QAEXV?$_List_unchecked_const_iterator@V?$_List_val@U?$_List_simple_types@U?$pair@$$CBI_N@std@@@std@@@std@@U_Iterator_base0@2@@2@00@Z
	?_Unlinknode@?$list@U?$pair@$$CBI_N@std@@V?$allocator@U?$pair@$$CBI_N@std@@@2@@std@@QAEPAU?$_List_node@U?$pair@$$CBI_N@std@@PAX@2@V?$_List_const_iterator@V?$_List_val@U?$_List_simple_types@U?$pair@$$CBI_N@std@@@std@@@std@@@2@@Z
	?_Unlock@?$basic_filebuf@DU?$char_traits@D@std@@@std@@UAEXXZ
	?_Unused_capacity@?$vector@EV?$allocator@E@std@@@std@@ABEIXZ
	?_Vec_hi@?$_Hash@V?$_Umap_traits@I_NV?$_Uhash_compare@IU?$hash@I@std@@U?$equal_to@I@2@@std@@V?$allocator@U?$pair@$$CBI_N@std@@@2@$0A@@std@@@std@@IAEAAV?$_List_unchecked_iterator@V?$_List_val@U?$_List_simple_types@U?$pair@$$CBI_N@std@@@std@@@std@@@2@I@Z
	?_Vec_lo@?$_Hash@V?$_Umap_traits@I_NV?$_Uhash_compare@IU?$hash@I@std@@U?$equal_to@I@2@@std@@V?$allocator@U?$pair@$$CBI_N@std@@@2@$0A@@std@@@std@@IAEAAV?$_List_unchecked_iterator@V?$_List_val@U?$_List_simple_types@U?$pair@$$CBI_N@std@@@std@@@std@@@2@I@Z
	?_Xlen@?$basic_string@DU?$char_traits@D@std@@V?$allocator@D@2@@std@@SAXXZ
	?_Xlength@?$vector@DV?$allocator@D@std@@@std@@CAXXZ
	?_Xlength@?$vector@EV?$allocator@E@std@@@std@@CAXXZ
	?_Xlength@?$vector@HV?$allocator@H@std@@@std@@CAXXZ
	?_Xlength@?$vector@IV?$allocator@I@std@@@std@@CAXXZ
	?_Xlength@?$vector@KV?$allocator@K@std@@@std@@CAXXZ
	?_Xlength@?$vector@PAVGlyph@BookEngine@@V?$allocator@PAVGlyph@BookEngine@@@std@@@std@@CAXXZ
	?_Xlength@?$vector@PAVIScreen@BookEngine@@V?$allocator@PAVIScreen@BookEngine@@@std@@@std@@CAXXZ
	?_Xlength@?$vector@PAVParticleBatch2D@BookEngine@@V?$allocator@PAVParticleBatch2D@BookEngine@@@std@@@std@@CAXXZ
	?_Xlength@?$vector@U?$tvec2@M$0A@@glm@@V?$allocator@U?$tvec2@M$0A@@glm@@@std@@@std@@CAXXZ
	?_Xlength@?$vector@U?$tvec3@M$0A@@glm@@V?$allocator@U?$tvec3@M$0A@@glm@@@std@@@std@@CAXXZ
	?_Xlength@?$vector@U?$tvec4@M$0A@@glm@@V?$allocator@U?$tvec4@M$0A@@glm@@@std@@@std@@CAXXZ
	?_Xlength@?$vector@UVertex2D@BookEngine@@V?$allocator@UVertex2D@BookEngine@@@std@@@std@@CAXXZ
	?_Xlength@?$vector@V?$_List_unchecked_iterator@V?$_List_val@U?$_List_simple_types@U?$pair@$$CBI_N@std@@@std@@@std@@@std@@V?$allocator@V?$_List_unchecked_iterator@V?$_List_val@U?$_List_simple_types@U?$pair@$$CBI_N@std@@@std@@@std@@@std@@@2@@std@@CAXXZ
	?_Xlength@?$vector@VBatchRenderr@BookEngine@@V?$allocator@VBatchRenderr@BookEngine@@@std@@@std@@CAXXZ
	?_Xlength@?$vector@VGlyph@BookEngine@@V?$allocator@VGlyph@BookEngine@@@std@@@std@@CAXXZ
	?_Xran@?$_String_val@U?$_Simple_types@D@std@@@std@@SAXXZ
	?__empty_global_delete@@YAXPAX@Z
	?__empty_global_delete@@YAXPAXI@Z
	?abs@@YAMM@Z
	?acos@@YAMM@Z
	?allocate@?$allocator@D@std@@QAEPADI@Z
	?allocate@?$allocator@E@std@@QAEPAEI@Z
	?allocate@?$allocator@H@std@@QAEPAHI@Z
	?allocate@?$allocator@I@std@@QAEPAII@Z
	?allocate@?$allocator@K@std@@QAEPAKI@Z
	?allocate@?$allocator@PAVGlyph@BookEngine@@@std@@QAEPAPAVGlyph@BookEngine@@I@Z
	?allocate@?$allocator@PAVIScreen@BookEngine@@@std@@QAEPAPAVIScreen@BookEngine@@I@Z
	?allocate@?$allocator@PAVParticleBatch2D@BookEngine@@@std@@QAEPAPAVParticleBatch2D@BookEngine@@I@Z
	?allocate@?$allocator@U?$_List_node@U?$pair@$$CBI_N@std@@PAX@std@@@std@@QAEPAU?$_List_node@U?$pair@$$CBI_N@std@@PAX@2@I@Z
	?allocate@?$allocator@U?$_Tree_node@U?$pair@$$CBV?$basic_string@DU?$char_traits@D@std@@V?$allocator@D@2@@std@@PAUMix_Chunk@@@std@@PAX@std@@@std@@QAEPAU?$_Tree_node@U?$pair@$$CBV?$basic_string@DU?$char_traits@D@std@@V?$allocator@D@2@@std@@PAUMix_Chunk@@@std@@PAX@2@I@Z
	?allocate@?$allocator@U?$_Tree_node@U?$pair@$$CBV?$basic_string@DU?$char_traits@D@std@@V?$allocator@D@2@@std@@PAU_Mix_Music@@@std@@PAX@std@@@std@@QAEPAU?$_Tree_node@U?$pair@$$CBV?$basic_string@DU?$char_traits@D@std@@V?$allocator@D@2@@std@@PAU_Mix_Music@@@std@@PAX@2@I@Z
	?allocate@?$allocator@U?$_Tree_node@U?$pair@$$CBV?$basic_string@DU?$char_traits@D@std@@V?$allocator@D@2@@std@@UGLTexture@BookEngine@@@std@@PAX@std@@@std@@QAEPAU?$_Tree_node@U?$pair@$$CBV?$basic_string@DU?$char_traits@D@std@@V?$allocator@D@2@@std@@UGLTexture@BookEngine@@@std@@PAX@2@I@Z
	?allocate@?$allocator@U?$tvec2@M$0A@@glm@@@std@@QAEPAU?$tvec2@M$0A@@glm@@I@Z
	?allocate@?$allocator@U?$tvec3@M$0A@@glm@@@std@@QAEPAU?$tvec3@M$0A@@glm@@I@Z
	?allocate@?$allocator@U?$tvec4@M$0A@@glm@@@std@@QAEPAU?$tvec4@M$0A@@glm@@I@Z
	?allocate@?$allocator@UVertex2D@BookEngine@@@std@@QAEPAUVertex2D@BookEngine@@I@Z
	?allocate@?$allocator@U_Container_proxy@std@@@std@@QAEPAU_Container_proxy@2@I@Z
	?allocate@?$allocator@V?$_List_unchecked_iterator@V?$_List_val@U?$_List_simple_types@U?$pair@$$CBI_N@std@@@std@@@std@@@std@@@std@@QAEPAV?$_List_unchecked_iterator@V?$_List_val@U?$_List_simple_types@U?$pair@$$CBI_N@std@@@std@@@std@@@2@I@Z
	?allocate@?$allocator@VBatchRenderr@BookEngine@@@std@@QAEPAVBatchRenderr@BookEngine@@I@Z
	?allocate@?$allocator@VGlyph@BookEngine@@@std@@QAEPAVGlyph@BookEngine@@I@Z
	?append@?$basic_string@DU?$char_traits@D@std@@V?$allocator@D@2@@std@@QAEAAV12@ABV12@@Z
	?append@?$basic_string@DU?$char_traits@D@std@@V?$allocator@D@2@@std@@QAEAAV12@ID@Z
	?append@?$basic_string@DU?$char_traits@D@std@@V?$allocator@D@2@@std@@QAEAAV12@QBD@Z
	?append@?$basic_string@DU?$char_traits@D@std@@V?$allocator@D@2@@std@@QAEAAV12@QBDI@Z
	?assign@?$basic_string@DU?$char_traits@D@std@@V?$allocator@D@2@@std@@QAEAAV12@ABV12@II@Z
	?assign@?$basic_string@DU?$char_traits@D@std@@V?$allocator@D@2@@std@@QAEAAV12@ID@Z
	?assign@?$basic_string@DU?$char_traits@D@std@@V?$allocator@D@2@@std@@QAEAAV12@QBD@Z
	?assign@?$basic_string@DU?$char_traits@D@std@@V?$allocator@D@2@@std@@QAEAAV12@QBDI@Z
	?assign@?$char_traits@D@std@@SAPADQADID@Z
	?assign@?$char_traits@D@std@@SAXAADABD@Z
	?assign@?$vector@V?$_List_unchecked_iterator@V?$_List_val@U?$_List_simple_types@U?$pair@$$CBI_N@std@@@std@@@std@@@std@@V?$allocator@V?$_List_unchecked_iterator@V?$_List_val@U?$_List_simple_types@U?$pair@$$CBI_N@std@@@std@@@std@@@std@@@2@@std@@QAEXIABV?$_List_unchecked_iterator@V?$_List_val@U?$_List_simple_types@U?$pair@$$CBI_N@std@@@std@@@std@@@2@@Z
	?back@?$vector@VBatchRenderr@BookEngine@@V?$allocator@VBatchRenderr@BookEngine@@@std@@@std@@QAEAAVBatchRenderr@BookEngine@@XZ
	?begin@?$_Tree@V?$_Tmap_traits@V?$basic_string@DU?$char_traits@D@std@@V?$allocator@D@2@@std@@PAUMix_Chunk@@U?$less@V?$basic_string@DU?$char_traits@D@std@@V?$allocator@D@2@@std@@@2@V?$allocator@U?$pair@$$CBV?$basic_string@DU?$char_traits@D@std@@V?$allocator@D@2@@std@@PAUMix_Chunk@@@std@@@2@$0A@@std@@@std@@QAE?AV?$_Tree_iterator@V?$_Tree_val@U?$_Tree_simple_types@U?$pair@$$CBV?$basic_string@DU?$char_traits@D@std@@V?$allocator@D@2@@std@@PAUMix_Chunk@@@std@@@std@@@std@@@2@XZ
	?begin@?$_Tree@V?$_Tmap_traits@V?$basic_string@DU?$char_traits@D@std@@V?$allocator@D@2@@std@@PAU_Mix_Music@@U?$less@V?$basic_string@DU?$char_traits@D@std@@V?$allocator@D@2@@std@@@2@V?$allocator@U?$pair@$$CBV?$basic_string@DU?$char_traits@D@std@@V?$allocator@D@2@@std@@PAU_Mix_Music@@@std@@@2@$0A@@std@@@std@@QAE?AV?$_Tree_iterator@V?$_Tree_val@U?$_Tree_simple_types@U?$pair@$$CBV?$basic_string@DU?$char_traits@D@std@@V?$allocator@D@2@@std@@PAU_Mix_Music@@@std@@@std@@@std@@@2@XZ
	?begin@?$_Tree@V?$_Tmap_traits@V?$basic_string@DU?$char_traits@D@std@@V?$allocator@D@2@@std@@UGLTexture@BookEngine@@U?$less@V?$basic_string@DU?$char_traits@D@std@@V?$allocator@D@2@@std@@@2@V?$allocator@U?$pair@$$CBV?$basic_string@DU?$char_traits@D@std@@V?$allocator@D@2@@std@@UGLTexture@BookEngine@@@std@@@2@$0A@@std@@@std@@QAE?AV?$_Tree_iterator@V?$_Tree_val@U?$_Tree_simple_types@U?$pair@$$CBV?$basic_string@DU?$char_traits@D@std@@V?$allocator@D@2@@std@@UGLTexture@BookEngine@@@std@@@std@@@std@@@2@XZ
	?begin@?$basic_string@DU?$char_traits@D@std@@V?$allocator@D@2@@std@@QAE?AV?$_String_iterator@V?$_String_val@U?$_Simple_types@D@std@@@std@@@2@XZ
	?begin@?$list@U?$pair@$$CBI_N@std@@V?$allocator@U?$pair@$$CBI_N@std@@@2@@std@@QAE?AV?$_List_iterator@V?$_List_val@U?$_List_simple_types@U?$pair@$$CBI_N@std@@@std@@@std@@@2@XZ
	?begin@?$vector@EV?$allocator@E@std@@@std@@QAE?AV?$_Vector_iterator@V?$_Vector_val@U?$_Simple_types@E@std@@@std@@@2@XZ
	?begin@?$vector@PAVGlyph@BookEngine@@V?$allocator@PAVGlyph@BookEngine@@@std@@@std@@QAE?AV?$_Vector_iterator@V?$_Vector_val@U?$_Simple_types@PAVGlyph@BookEngine@@@std@@@std@@@2@XZ
	?bucket_count@?$_Hash@V?$_Umap_traits@I_NV?$_Uhash_compare@IU?$hash@I@std@@U?$equal_to@I@2@@std@@V?$allocator@U?$pair@$$CBI_N@std@@@2@$0A@@std@@@std@@QBEIXZ
	?c_str@?$basic_string@DU?$char_traits@D@std@@V?$allocator@D@2@@std@@QBEPBDXZ
	?call@?$compute_abs@M$00@detail@glm@@SAMM@Z
	?call@?$compute_dot@Utvec2@glm@@M$0A@@detail@glm@@SAMABU?$tvec2@M$0A@@3@0@Z
	?call@?$compute_dot@Utvec3@glm@@M$0A@@detail@glm@@SAMABU?$tvec3@M$0A@@3@0@Z
	?capacity@?$vector@DV?$allocator@D@std@@@std@@QBEIXZ
	?capacity@?$vector@EV?$allocator@E@std@@@std@@QBEIXZ
	?capacity@?$vector@HV?$allocator@H@std@@@std@@QBEIXZ
	?capacity@?$vector@IV?$allocator@I@std@@@std@@QBEIXZ
	?capacity@?$vector@KV?$allocator@K@std@@@std@@QBEIXZ
	?capacity@?$vector@PAVGlyph@BookEngine@@V?$allocator@PAVGlyph@BookEngine@@@std@@@std@@QBEIXZ
	?capacity@?$vector@PAVIScreen@BookEngine@@V?$allocator@PAVIScreen@BookEngine@@@std@@@std@@QBEIXZ
	?capacity@?$vector@PAVParticleBatch2D@BookEngine@@V?$allocator@PAVParticleBatch2D@BookEngine@@@std@@@std@@QBEIXZ
	?capacity@?$vector@U?$tvec2@M$0A@@glm@@V?$allocator@U?$tvec2@M$0A@@glm@@@std@@@std@@QBEIXZ
	?capacity@?$vector@U?$tvec3@M$0A@@glm@@V?$allocator@U?$tvec3@M$0A@@glm@@@std@@@std@@QBEIXZ
	?capacity@?$vector@U?$tvec4@M$0A@@glm@@V?$allocator@U?$tvec4@M$0A@@glm@@@std@@@std@@QBEIXZ
	?capacity@?$vector@UVertex2D@BookEngine@@V?$allocator@UVertex2D@BookEngine@@@std@@@std@@QBEIXZ
	?capacity@?$vector@V?$_List_unchecked_iterator@V?$_List_val@U?$_List_simple_types@U?$pair@$$CBI_N@std@@@std@@@std@@@std@@V?$allocator@V?$_List_unchecked_iterator@V?$_List_val@U?$_List_simple_types@U?$pair@$$CBI_N@std@@@std@@@std@@@std@@@2@@std@@QBEIXZ
	?capacity@?$vector@VBatchRenderr@BookEngine@@V?$allocator@VBatchRenderr@BookEngine@@@std@@@std@@QBEIXZ
	?capacity@?$vector@VGlyph@BookEngine@@V?$allocator@VGlyph@BookEngine@@@std@@@std@@QBEIXZ
	?clear@?$_Tree@V?$_Tmap_traits@V?$basic_string@DU?$char_traits@D@std@@V?$allocator@D@2@@std@@PAUMix_Chunk@@U?$less@V?$basic_string@DU?$char_traits@D@std@@V?$allocator@D@2@@std@@@2@V?$allocator@U?$pair@$$CBV?$basic_string@DU?$char_traits@D@std@@V?$allocator@D@2@@std@@PAUMix_Chunk@@@std@@@2@$0A@@std@@@std@@QAEXXZ
	?clear@?$_Tree@V?$_Tmap_traits@V?$basic_string@DU?$char_traits@D@std@@V?$allocator@D@2@@std@@PAU_Mix_Music@@U?$less@V?$basic_string@DU?$char_traits@D@std@@V?$allocator@D@2@@std@@@2@V?$allocator@U?$pair@$$CBV?$basic_string@DU?$char_traits@D@std@@V?$allocator@D@2@@std@@PAU_Mix_Music@@@std@@@2@$0A@@std@@@std@@QAEXXZ
	?clear@?$_Tree@V?$_Tmap_traits@V?$basic_string@DU?$char_traits@D@std@@V?$allocator@D@2@@std@@UGLTexture@BookEngine@@U?$less@V?$basic_string@DU?$char_traits@D@std@@V?$allocator@D@2@@std@@@2@V?$allocator@U?$pair@$$CBV?$basic_string@DU?$char_traits@D@std@@V?$allocator@D@2@@std@@UGLTexture@BookEngine@@@std@@@2@$0A@@std@@@std@@QAEXXZ
	?clear@?$list@U?$pair@$$CBI_N@std@@V?$allocator@U?$pair@$$CBI_N@std@@@2@@std@@QAEXXZ
	?clear@?$vector@KV?$allocator@K@std@@@std@@QAEXXZ
	?clear@?$vector@VBatchRenderr@BookEngine@@V?$allocator@VBatchRenderr@BookEngine@@@std@@@std@@QAEXXZ
	?clear@?$vector@VGlyph@BookEngine@@V?$allocator@VGlyph@BookEngine@@@std@@@std@@QAEXXZ
	?close@?$basic_filebuf@DU?$char_traits@D@std@@@std@@QAEPAV12@XZ
	?close@?$basic_ifstream@DU?$char_traits@D@std@@@std@@QAEXXZ
	?close@?$basic_ofstream@DU?$char_traits@D@std@@@std@@QAEXXZ
	?closestPow2@@YAHH@Z
	?compare@?$basic_string@DU?$char_traits@D@std@@V?$allocator@D@2@@std@@QBEHABV12@@Z
	?compare@?$char_traits@D@std@@SAHQBD0I@Z
	?copy@?$char_traits@D@std@@SAPADQADQBDI@Z
	?cos@@YAMM@Z
	?createRows@SpriteFont@BookEngine@@CAPAV?$vector@HV?$allocator@H@std@@@std@@PAU?$tvec4@H$0A@@glm@@HHHAAH@Z
	?data@?$vector@UVertex2D@BookEngine@@V?$allocator@UVertex2D@BookEngine@@@std@@@std@@QAEPAUVertex2D@BookEngine@@XZ
	?deallocate@?$_Default_allocator_traits@V?$allocator@U?$_List_node@U?$pair@$$CBI_N@std@@PAX@std@@@std@@@std@@SAXAAV?$allocator@U?$_List_node@U?$pair@$$CBI_N@std@@PAX@std@@@2@QAU?$_List_node@U?$pair@$$CBI_N@std@@PAX@2@I@Z
	?deallocate@?$_Default_allocator_traits@V?$allocator@U?$_Tree_node@U?$pair@$$CBV?$basic_string@DU?$char_traits@D@std@@V?$allocator@D@2@@std@@PAUMix_Chunk@@@std@@PAX@std@@@std@@@std@@SAXAAV?$allocator@U?$_Tree_node@U?$pair@$$CBV?$basic_string@DU?$char_traits@D@std@@V?$allocator@D@2@@std@@PAUMix_Chunk@@@std@@PAX@std@@@2@QAU?$_Tree_node@U?$pair@$$CBV?$basic_string@DU?$char_traits@D@std@@V?$allocator@D@2@@std@@PAUMix_Chunk@@@std@@PAX@2@I@Z
	?deallocate@?$_Default_allocator_traits@V?$allocator@U?$_Tree_node@U?$pair@$$CBV?$basic_string@DU?$char_traits@D@std@@V?$allocator@D@2@@std@@PAU_Mix_Music@@@std@@PAX@std@@@std@@@std@@SAXAAV?$allocator@U?$_Tree_node@U?$pair@$$CBV?$basic_string@DU?$char_traits@D@std@@V?$allocator@D@2@@std@@PAU_Mix_Music@@@std@@PAX@std@@@2@QAU?$_Tree_node@U?$pair@$$CBV?$basic_string@DU?$char_traits@D@std@@V?$allocator@D@2@@std@@PAU_Mix_Music@@@std@@PAX@2@I@Z
	?deallocate@?$_Default_allocator_traits@V?$allocator@U?$_Tree_node@U?$pair@$$CBV?$basic_string@DU?$char_traits@D@std@@V?$allocator@D@2@@std@@UGLTexture@BookEngine@@@std@@PAX@std@@@std@@@std@@SAXAAV?$allocator@U?$_Tree_node@U?$pair@$$CBV?$basic_string@DU?$char_traits@D@std@@V?$allocator@D@2@@std@@UGLTexture@BookEngine@@@std@@PAX@std@@@2@QAU?$_Tree_node@U?$pair@$$CBV?$basic_string@DU?$char_traits@D@std@@V?$allocator@D@2@@std@@UGLTexture@BookEngine@@@std@@PAX@2@I@Z
	?deallocate@?$_Default_allocator_traits@V?$allocator@U_Container_proxy@std@@@std@@@std@@SAXAAV?$allocator@U_Container_proxy@std@@@2@QAU_Container_proxy@2@I@Z
	?deallocate@?$allocator@D@std@@QAEXQADI@Z
	?deallocate@?$allocator@E@std@@QAEXQAEI@Z
	?deallocate@?$allocator@H@std@@QAEXQAHI@Z
	?deallocate@?$allocator@I@std@@QAEXQAII@Z
	?deallocate@?$allocator@K@std@@QAEXQAKI@Z
	?deallocate@?$allocator@PAVGlyph@BookEngine@@@std@@QAEXQAPAVGlyph@BookEngine@@I@Z
	?deallocate@?$allocator@PAVIScreen@BookEngine@@@std@@QAEXQAPAVIScreen@BookEngine@@I@Z
	?deallocate@?$allocator@PAVParticleBatch2D@BookEngine@@@std@@QAEXQAPAVParticleBatch2D@BookEngine@@I@Z
	?deallocate@?$allocator@U?$_List_node@U?$pair@$$CBI_N@std@@PAX@std@@@std@@QAEXQAU?$_List_node@U?$pair@$$CBI_N@std@@PAX@2@I@Z
	?deallocate@?$allocator@U?$_Tree_node@U?$pair@$$CBV?$basic_string@DU?$char_traits@D@std@@V?$allocator@D@2@@std@@PAUMix_Chunk@@@std@@PAX@std@@@std@@QAEXQAU?$_Tree_node@U?$pair@$$CBV?$basic_string@DU?$char_traits@D@std@@V?$allocator@D@2@@std@@PAUMix_Chunk@@@std@@PAX@2@I@Z
	?deallocate@?$allocator@U?$_Tree_node@U?$pair@$$CBV?$basic_string@DU?$char_traits@D@std@@V?$allocator@D@2@@std@@PAU_Mix_Music@@@std@@PAX@std@@@std@@QAEXQAU?$_Tree_node@U?$pair@$$CBV?$basic_string@DU?$char_traits@D@std@@V?$allocator@D@2@@std@@PAU_Mix_Music@@@std@@PAX@2@I@Z
	?deallocate@?$allocator@U?$_Tree_node@U?$pair@$$CBV?$basic_string@DU?$char_traits@D@std@@V?$allocator@D@2@@std@@UGLTexture@BookEngine@@@std@@PAX@std@@@std@@QAEXQAU?$_Tree_node@U?$pair@$$CBV?$basic_string@DU?$char_traits@D@std@@V?$allocator@D@2@@std@@UGLTexture@BookEngine@@@std@@PAX@2@I@Z
	?deallocate@?$allocator@U?$tvec2@M$0A@@glm@@@std@@QAEXQAU?$tvec2@M$0A@@glm@@I@Z
	?deallocate@?$allocator@U?$tvec3@M$0A@@glm@@@std@@QAEXQAU?$tvec3@M$0A@@glm@@I@Z
	?deallocate@?$allocator@U?$tvec4@M$0A@@glm@@@std@@QAEXQAU?$tvec4@M$0A@@glm@@I@Z
	?deallocate@?$allocator@UVertex2D@BookEngine@@@std@@QAEXQAUVertex2D@BookEngine@@I@Z
	?deallocate@?$allocator@V?$_List_unchecked_iterator@V?$_List_val@U?$_List_simple_types@U?$pair@$$CBI_N@std@@@std@@@std@@@std@@@std@@QAEXQAV?$_List_unchecked_iterator@V?$_List_val@U?$_List_simple_types@U?$pair@$$CBI_N@std@@@std@@@std@@@2@I@Z
	?deallocate@?$allocator@VBatchRenderr@BookEngine@@@std@@QAEXQAVBatchRenderr@BookEngine@@I@Z
	?deallocate@?$allocator@VGlyph@BookEngine@@@std@@QAEXQAVGlyph@BookEngine@@I@Z
	?dispose@SpriteFont@BookEngine@@QAEXXZ
	?empty@?$vector@EV?$allocator@E@std@@@std@@QBE_NXZ
	?empty@?$vector@PAVGlyph@BookEngine@@V?$allocator@PAVGlyph@BookEngine@@@std@@@std@@QBE_NXZ
	?empty@?$vector@VBatchRenderr@BookEngine@@V?$allocator@VBatchRenderr@BookEngine@@@std@@@std@@QBE_NXZ
	?end@?$_Hash@V?$_Umap_traits@I_NV?$_Uhash_compare@IU?$hash@I@std@@U?$equal_to@I@2@@std@@V?$allocator@U?$pair@$$CBI_N@std@@@2@$0A@@std@@@std@@QAE?AV?$_List_iterator@V?$_List_val@U?$_List_simple_types@U?$pair@$$CBI_N@std@@@std@@@std@@@2@XZ
	?end@?$_Tree@V?$_Tmap_traits@V?$basic_string@DU?$char_traits@D@std@@V?$allocator@D@2@@std@@PAUMix_Chunk@@U?$less@V?$basic_string@DU?$char_traits@D@std@@V?$allocator@D@2@@std@@@2@V?$allocator@U?$pair@$$CBV?$basic_string@DU?$char_traits@D@std@@V?$allocator@D@2@@std@@PAUMix_Chunk@@@std@@@2@$0A@@std@@@std@@QAE?AV?$_Tree_iterator@V?$_Tree_val@U?$_Tree_simple_types@U?$pair@$$CBV?$basic_string@DU?$char_traits@D@std@@V?$allocator@D@2@@std@@PAUMix_Chunk@@@std@@@std@@@std@@@2@XZ
	?end@?$_Tree@V?$_Tmap_traits@V?$basic_string@DU?$char_traits@D@std@@V?$allocator@D@2@@std@@PAU_Mix_Music@@U?$less@V?$basic_string@DU?$char_traits@D@std@@V?$allocator@D@2@@std@@@2@V?$allocator@U?$pair@$$CBV?$basic_string@DU?$char_traits@D@std@@V?$allocator@D@2@@std@@PAU_Mix_Music@@@std@@@2@$0A@@std@@@std@@QAE?AV?$_Tree_iterator@V?$_Tree_val@U?$_Tree_simple_types@U?$pair@$$CBV?$basic_string@DU?$char_traits@D@std@@V?$allocator@D@2@@std@@PAU_Mix_Music@@@std@@@std@@@std@@@2@XZ
	?end@?$_Tree@V?$_Tmap_traits@V?$basic_string@DU?$char_traits@D@std@@V?$allocator@D@2@@std@@UGLTexture@BookEngine@@U?$less@V?$basic_string@DU?$char_traits@D@std@@V?$allocator@D@2@@std@@@2@V?$allocator@U?$pair@$$CBV?$basic_string@DU?$char_traits@D@std@@V?$allocator@D@2@@std@@UGLTexture@BookEngine@@@std@@@2@$0A@@std@@@std@@QAE?AV?$_Tree_iterator@V?$_Tree_val@U?$_Tree_simple_types@U?$pair@$$CBV?$basic_string@DU?$char_traits@D@std@@V?$allocator@D@2@@std@@UGLTexture@BookEngine@@@std@@@std@@@std@@@2@XZ
	?end@?$list@U?$pair@$$CBI_N@std@@V?$allocator@U?$pair@$$CBI_N@std@@@2@@std@@QAE?AV?$_List_iterator@V?$_List_val@U?$_List_simple_types@U?$pair@$$CBI_N@std@@@std@@@std@@@2@XZ
	?end@?$vector@EV?$allocator@E@std@@@std@@QAE?AV?$_Vector_iterator@V?$_Vector_val@U?$_Simple_types@E@std@@@std@@@2@XZ
	?end@?$vector@PAVGlyph@BookEngine@@V?$allocator@PAVGlyph@BookEngine@@@std@@@std@@QAE?AV?$_Vector_iterator@V?$_Vector_val@U?$_Simple_types@PAVGlyph@BookEngine@@@std@@@std@@@2@XZ
	?eof@?$char_traits@D@std@@SAHXZ
	?epsilon@?$numeric_limits@M@std@@SAMXZ
	?eq@?$char_traits@D@std@@SA_NABD0@Z
	?eq_int_type@?$char_traits@D@std@@SA_NABH0@Z
	?erase@?$_Hash@V?$_Umap_traits@I_NV?$_Uhash_compare@IU?$hash@I@std@@U?$equal_to@I@2@@std@@V?$allocator@U?$pair@$$CBI_N@std@@@2@$0A@@std@@@std@@QAE?AV?$_List_iterator@V?$_List_val@U?$_List_simple_types@U?$pair@$$CBI_N@std@@@std@@@std@@@2@V?$_List_const_iterator@V?$_List_val@U?$_List_simple_types@U?$pair@$$CBI_N@std@@@std@@@std@@@2@@Z
	?erase@?$_Tree@V?$_Tmap_traits@V?$basic_string@DU?$char_traits@D@std@@V?$allocator@D@2@@std@@PAUMix_Chunk@@U?$less@V?$basic_string@DU?$char_traits@D@std@@V?$allocator@D@2@@std@@@2@V?$allocator@U?$pair@$$CBV?$basic_string@DU?$char_traits@D@std@@V?$allocator@D@2@@std@@PAUMix_Chunk@@@std@@@2@$0A@@std@@@std@@QAE?AV?$_Tree_iterator@V?$_Tree_val@U?$_Tree_simple_types@U?$pair@$$CBV?$basic_string@DU?$char_traits@D@std@@V?$allocator@D@2@@std@@PAUMix_Chunk@@@std@@@std@@@std@@@2@V?$_Tree_const_iterator@V?$_Tree_val@U?$_Tree_simple_types@U?$pair@$$CBV?$basic_string@DU?$char_traits@D@std@@V?$allocator@D@2@@std@@PAUMix_Chunk@@@std@@@std@@@std@@@2@0@Z
	?erase@?$_Tree@V?$_Tmap_traits@V?$basic_string@DU?$char_traits@D@std@@V?$allocator@D@2@@std@@PAUMix_Chunk@@U?$less@V?$basic_string@DU?$char_traits@D@std@@V?$allocator@D@2@@std@@@2@V?$allocator@U?$pair@$$CBV?$basic_string@DU?$char_traits@D@std@@V?$allocator@D@2@@std@@PAUMix_Chunk@@@std@@@2@$0A@@std@@@std@@QAE?AV?$_Tree_iterator@V?$_Tree_val@U?$_Tree_simple_types@U?$pair@$$CBV?$basic_string@DU?$char_traits@D@std@@V?$allocator@D@2@@std@@PAUMix_Chunk@@@std@@@std@@@std@@@2@V?$_Tree_const_iterator@V?$_Tree_val@U?$_Tree_simple_types@U?$pair@$$CBV?$basic_string@DU?$char_traits@D@std@@V?$allocator@D@2@@std@@PAUMix_Chunk@@@std@@@std@@@std@@@2@@Z
	?erase@?$_Tree@V?$_Tmap_traits@V?$basic_string@DU?$char_traits@D@std@@V?$allocator@D@2@@std@@PAU_Mix_Music@@U?$less@V?$basic_string@DU?$char_traits@D@std@@V?$allocator@D@2@@std@@@2@V?$allocator@U?$pair@$$CBV?$basic_string@DU?$char_traits@D@std@@V?$allocator@D@2@@std@@PAU_Mix_Music@@@std@@@2@$0A@@std@@@std@@QAE?AV?$_Tree_iterator@V?$_Tree_val@U?$_Tree_simple_types@U?$pair@$$CBV?$basic_string@DU?$char_traits@D@std@@V?$allocator@D@2@@std@@PAU_Mix_Music@@@std@@@std@@@std@@@2@V?$_Tree_const_iterator@V?$_Tree_val@U?$_Tree_simple_types@U?$pair@$$CBV?$basic_string@DU?$char_traits@D@std@@V?$allocator@D@2@@std@@PAU_Mix_Music@@@std@@@std@@@std@@@2@0@Z
	?erase@?$_Tree@V?$_Tmap_traits@V?$basic_string@DU?$char_traits@D@std@@V?$allocator@D@2@@std@@PAU_Mix_Music@@U?$less@V?$basic_string@DU?$char_traits@D@std@@V?$allocator@D@2@@std@@@2@V?$allocator@U?$pair@$$CBV?$basic_string@DU?$char_traits@D@std@@V?$allocator@D@2@@std@@PAU_Mix_Music@@@std@@@2@$0A@@std@@@std@@QAE?AV?$_Tree_iterator@V?$_Tree_val@U?$_Tree_simple_types@U?$pair@$$CBV?$basic_string@DU?$char_traits@D@std@@V?$allocator@D@2@@std@@PAU_Mix_Music@@@std@@@std@@@std@@@2@V?$_Tree_const_iterator@V?$_Tree_val@U?$_Tree_simple_types@U?$pair@$$CBV?$basic_string@DU?$char_traits@D@std@@V?$allocator@D@2@@std@@PAU_Mix_Music@@@std@@@std@@@std@@@2@@Z
	?erase@?$_Tree@V?$_Tmap_traits@V?$basic_string@DU?$char_traits@D@std@@V?$allocator@D@2@@std@@UGLTexture@BookEngine@@U?$less@V?$basic_string@DU?$char_traits@D@std@@V?$allocator@D@2@@std@@@2@V?$allocator@U?$pair@$$CBV?$basic_string@DU?$char_traits@D@std@@V?$allocator@D@2@@std@@UGLTexture@BookEngine@@@std@@@2@$0A@@std@@@std@@QAE?AV?$_Tree_iterator@V?$_Tree_val@U?$_Tree_simple_types@U?$pair@$$CBV?$basic_string@DU?$char_traits@D@std@@V?$allocator@D@2@@std@@UGLTexture@BookEngine@@@std@@@std@@@std@@@2@V?$_Tree_const_iterator@V?$_Tree_val@U?$_Tree_simple_types@U?$pair@$$CBV?$basic_string@DU?$char_traits@D@std@@V?$allocator@D@2@@std@@UGLTexture@BookEngine@@@std@@@std@@@std@@@2@0@Z
	?erase@?$_Tree@V?$_Tmap_traits@V?$basic_string@DU?$char_traits@D@std@@V?$allocator@D@2@@std@@UGLTexture@BookEngine@@U?$less@V?$basic_string@DU?$char_traits@D@std@@V?$allocator@D@2@@std@@@2@V?$allocator@U?$pair@$$CBV?$basic_string@DU?$char_traits@D@std@@V?$allocator@D@2@@std@@UGLTexture@BookEngine@@@std@@@2@$0A@@std@@@std@@QAE?AV?$_Tree_iterator@V?$_Tree_val@U?$_Tree_simple_types@U?$pair@$$CBV?$basic_string@DU?$char_traits@D@std@@V?$allocator@D@2@@std@@UGLTexture@BookEngine@@@std@@@std@@@std@@@2@V?$_Tree_const_iterator@V?$_Tree_val@U?$_Tree_simple_types@U?$pair@$$CBV?$basic_string@DU?$char_traits@D@std@@V?$allocator@D@2@@std@@UGLTexture@BookEngine@@@std@@@std@@@std@@@2@@Z
	?erase@?$basic_string@DU?$char_traits@D@std@@V?$allocator@D@2@@std@@QAEAAV12@I@Z
	?erase@?$basic_string@DU?$char_traits@D@std@@V?$allocator@D@2@@std@@QAEAAV12@II@Z
	?erase@?$list@U?$pair@$$CBI_N@std@@V?$allocator@U?$pair@$$CBI_N@std@@@2@@std@@QAE?AV?$_List_iterator@V?$_List_val@U?$_List_simple_types@U?$pair@$$CBI_N@std@@@std@@@std@@@2@V?$_List_const_iterator@V?$_List_val@U?$_List_simple_types@U?$pair@$$CBI_N@std@@@std@@@std@@@2@@Z
	?find@?$_Hash@V?$_Umap_traits@I_NV?$_Uhash_compare@IU?$hash@I@std@@U?$equal_to@I@2@@std@@V?$allocator@U?$pair@$$CBI_N@std@@@2@$0A@@std@@@std@@QAE?AV?$_List_iterator@V?$_List_val@U?$_List_simple_types@U?$pair@$$CBI_N@std@@@std@@@std@@@2@ABI@Z
	?find@?$_Tree@V?$_Tmap_traits@V?$basic_string@DU?$char_traits@D@std@@V?$allocator@D@2@@std@@PAUMix_Chunk@@U?$less@V?$basic_string@DU?$char_traits@D@std@@V?$allocator@D@2@@std@@@2@V?$allocator@U?$pair@$$CBV?$basic_string@DU?$char_traits@D@std@@V?$allocator@D@2@@std@@PAUMix_Chunk@@@std@@@2@$0A@@std@@@std@@QAE?AV?$_Tree_iterator@V?$_Tree_val@U?$_Tree_simple_types@U?$pair@$$CBV?$basic_string@DU?$char_traits@D@std@@V?$allocator@D@2@@std@@PAUMix_Chunk@@@std@@@std@@@std@@@2@ABV?$basic_string@DU?$char_traits@D@std@@V?$allocator@D@2@@2@@Z
	?find@?$_Tree@V?$_Tmap_traits@V?$basic_string@DU?$char_traits@D@std@@V?$allocator@D@2@@std@@PAU_Mix_Music@@U?$less@V?$basic_string@DU?$char_traits@D@std@@V?$allocator@D@2@@std@@@2@V?$allocator@U?$pair@$$CBV?$basic_string@DU?$char_traits@D@std@@V?$allocator@D@2@@std@@PAU_Mix_Music@@@std@@@2@$0A@@std@@@std@@QAE?AV?$_Tree_iterator@V?$_Tree_val@U?$_Tree_simple_types@U?$pair@$$CBV?$basic_string@DU?$char_traits@D@std@@V?$allocator@D@2@@std@@PAU_Mix_Music@@@std@@@std@@@std@@@2@ABV?$basic_string@DU?$char_traits@D@std@@V?$allocator@D@2@@2@@Z
	?find@?$_Tree@V?$_Tmap_traits@V?$basic_string@DU?$char_traits@D@std@@V?$allocator@D@2@@std@@UGLTexture@BookEngine@@U?$less@V?$basic_string@DU?$char_traits@D@std@@V?$allocator@D@2@@std@@@2@V?$allocator@U?$pair@$$CBV?$basic_string@DU?$char_traits@D@std@@V?$allocator@D@2@@std@@UGLTexture@BookEngine@@@std@@@2@$0A@@std@@@std@@QAE?AV?$_Tree_iterator@V?$_Tree_val@U?$_Tree_simple_types@U?$pair@$$CBV?$basic_string@DU?$char_traits@D@std@@V?$allocator@D@2@@std@@UGLTexture@BookEngine@@@std@@@std@@@std@@@2@ABV?$basic_string@DU?$char_traits@D@std@@V?$allocator@D@2@@2@@Z
	?front@?$list@U?$pair@$$CBI_N@std@@V?$allocator@U?$pair@$$CBI_N@std@@@2@@std@@QAEAAU?$pair@$$CBI_N@2@XZ
	?get@?$unique_ptr@VScreenList@BookEngine@@U?$default_delete@VScreenList@BookEngine@@@std@@@std@@QBEPAVScreenList@BookEngine@@XZ
	?get_allocator@?$basic_string@DU?$char_traits@D@std@@V?$allocator@D@2@@std@@QBE?AV?$allocator@D@2@XZ
	?get_deleter@?$_Unique_ptr_base@VScreenList@BookEngine@@U?$default_delete@VScreenList@BookEngine@@@std@@@std@@QAEAAU?$default_delete@VScreenList@BookEngine@@@2@XZ
	?imbue@?$basic_filebuf@DU?$char_traits@D@std@@@std@@MAEXABVlocale@2@@Z
	?insert@?$basic_string@DU?$char_traits@D@std@@V?$allocator@D@2@@std@@QAEAAV12@IQBD@Z
	?insert@?$basic_string@DU?$char_traits@D@std@@V?$allocator@D@2@@std@@QAEAAV12@IQBDI@Z
	?isKeyDown@InputManager@BookEngine@@QAE_NI@Z
	?isKeyPressed@InputManager@BookEngine@@QAE_NI@Z
	?isLooped@AnimatedSprite@BookEngine@@QBE_NXZ
	?isPlaying@AnimatedSprite@BookEngine@@QBE_NXZ
	?length@?$char_traits@D@std@@SAIQBD@Z
	?length@?$tmat4x4@M$0A@@glm@@QBEHXZ
	?length@?$tvec3@M$0A@@glm@@QBEHXZ
	?length@?$tvec4@M$0A@@glm@@QBEHXZ
	?load_factor@?$_Hash@V?$_Umap_traits@I_NV?$_Uhash_compare@IU?$hash@I@std@@U?$equal_to@I@2@@std@@V?$allocator@U?$pair@$$CBI_N@std@@@2@$0A@@std@@@std@@QBEMXZ
	?lower_bound@?$_Hash@V?$_Umap_traits@I_NV?$_Uhash_compare@IU?$hash@I@std@@U?$equal_to@I@2@@std@@V?$allocator@U?$pair@$$CBI_N@std@@@2@$0A@@std@@@std@@QAE?AV?$_List_iterator@V?$_List_val@U?$_List_simple_types@U?$pair@$$CBI_N@std@@@std@@@std@@@2@ABI@Z
	?lower_bound@?$_Tree@V?$_Tmap_traits@V?$basic_string@DU?$char_traits@D@std@@V?$allocator@D@2@@std@@PAUMix_Chunk@@U?$less@V?$basic_string@DU?$char_traits@D@std@@V?$allocator@D@2@@std@@@2@V?$allocator@U?$pair@$$CBV?$basic_string@DU?$char_traits@D@std@@V?$allocator@D@2@@std@@PAUMix_Chunk@@@std@@@2@$0A@@std@@@std@@QAE?AV?$_Tree_iterator@V?$_Tree_val@U?$_Tree_simple_types@U?$pair@$$CBV?$basic_string@DU?$char_traits@D@std@@V?$allocator@D@2@@std@@PAUMix_Chunk@@@std@@@std@@@std@@@2@ABV?$basic_string@DU?$char_traits@D@std@@V?$allocator@D@2@@2@@Z
	?lower_bound@?$_Tree@V?$_Tmap_traits@V?$basic_string@DU?$char_traits@D@std@@V?$allocator@D@2@@std@@PAU_Mix_Music@@U?$less@V?$basic_string@DU?$char_traits@D@std@@V?$allocator@D@2@@std@@@2@V?$allocator@U?$pair@$$CBV?$basic_string@DU?$char_traits@D@std@@V?$allocator@D@2@@std@@PAU_Mix_Music@@@std@@@2@$0A@@std@@@std@@QAE?AV?$_Tree_iterator@V?$_Tree_val@U?$_Tree_simple_types@U?$pair@$$CBV?$basic_string@DU?$char_traits@D@std@@V?$allocator@D@2@@std@@PAU_Mix_Music@@@std@@@std@@@std@@@2@ABV?$basic_string@DU?$char_traits@D@std@@V?$allocator@D@2@@2@@Z
	?lower_bound@?$_Tree@V?$_Tmap_traits@V?$basic_string@DU?$char_traits@D@std@@V?$allocator@D@2@@std@@UGLTexture@BookEngine@@U?$less@V?$basic_string@DU?$char_traits@D@std@@V?$allocator@D@2@@std@@@2@V?$allocator@U?$pair@$$CBV?$basic_string@DU?$char_traits@D@std@@V?$allocator@D@2@@std@@UGLTexture@BookEngine@@@std@@@2@$0A@@std@@@std@@QAE?AV?$_Tree_iterator@V?$_Tree_val@U?$_Tree_simple_types@U?$pair@$$CBV?$basic_string@DU?$char_traits@D@std@@V?$allocator@D@2@@std@@UGLTexture@BookEngine@@@std@@@std@@@std@@@2@ABV?$basic_string@DU?$char_traits@D@std@@V?$allocator@D@2@@2@@Z
	?max@?$numeric_limits@H@std@@SAHXZ
	?max_load_factor@?$_Hash@V?$_Umap_traits@I_NV?$_Uhash_compare@IU?$hash@I@std@@U?$equal_to@I@2@@std@@V?$allocator@U?$pair@$$CBI_N@std@@@2@$0A@@std@@@std@@QBEMXZ
	?max_size@?$_Default_allocator_traits@V?$allocator@D@std@@@std@@SAIABV?$allocator@D@2@@Z
	?max_size@?$_Default_allocator_traits@V?$allocator@E@std@@@std@@SAIABV?$allocator@E@2@@Z
	?max_size@?$_Default_allocator_traits@V?$allocator@H@std@@@std@@SAIABV?$allocator@H@2@@Z
	?max_size@?$_Default_allocator_traits@V?$allocator@I@std@@@std@@SAIABV?$allocator@I@2@@Z
	?max_size@?$_Default_allocator_traits@V?$allocator@K@std@@@std@@SAIABV?$allocator@K@2@@Z
	?max_size@?$_Default_allocator_traits@V?$allocator@PAVGlyph@BookEngine@@@std@@@std@@SAIABV?$allocator@PAVGlyph@BookEngine@@@2@@Z
	?max_size@?$_Default_allocator_traits@V?$allocator@PAVIScreen@BookEngine@@@std@@@std@@SAIABV?$allocator@PAVIScreen@BookEngine@@@2@@Z
	?max_size@?$_Default_allocator_traits@V?$allocator@PAVParticleBatch2D@BookEngine@@@std@@@std@@SAIABV?$allocator@PAVParticleBatch2D@BookEngine@@@2@@Z
	?max_size@?$_Default_allocator_traits@V?$allocator@U?$_List_node@U?$pair@$$CBI_N@std@@PAX@std@@@std@@@std@@SAIABV?$allocator@U?$_List_node@U?$pair@$$CBI_N@std@@PAX@std@@@2@@Z
	?max_size@?$_Default_allocator_traits@V?$allocator@U?$_Tree_node@U?$pair@$$CBV?$basic_string@DU?$char_traits@D@std@@V?$allocator@D@2@@std@@PAUMix_Chunk@@@std@@PAX@std@@@std@@@std@@SAIABV?$allocator@U?$_Tree_node@U?$pair@$$CBV?$basic_string@DU?$char_traits@D@std@@V?$allocator@D@2@@std@@PAUMix_Chunk@@@std@@PAX@std@@@2@@Z
	?max_size@?$_Default_allocator_traits@V?$allocator@U?$_Tree_node@U?$pair@$$CBV?$basic_string@DU?$char_traits@D@std@@V?$allocator@D@2@@std@@PAU_Mix_Music@@@std@@PAX@std@@@std@@@std@@SAIABV?$allocator@U?$_Tree_node@U?$pair@$$CBV?$basic_string@DU?$char_traits@D@std@@V?$allocator@D@2@@std@@PAU_Mix_Music@@@std@@PAX@std@@@2@@Z
	?max_size@?$_Default_allocator_traits@V?$allocator@U?$_Tree_node@U?$pair@$$CBV?$basic_string@DU?$char_traits@D@std@@V?$allocator@D@2@@std@@UGLTexture@BookEngine@@@std@@PAX@std@@@std@@@std@@SAIABV?$allocator@U?$_Tree_node@U?$pair@$$CBV?$basic_string@DU?$char_traits@D@std@@V?$allocator@D@2@@std@@UGLTexture@BookEngine@@@std@@PAX@std@@@2@@Z
	?max_size@?$_Default_allocator_traits@V?$allocator@U?$tvec2@M$0A@@glm@@@std@@@std@@SAIABV?$allocator@U?$tvec2@M$0A@@glm@@@2@@Z
	?max_size@?$_Default_allocator_traits@V?$allocator@U?$tvec3@M$0A@@glm@@@std@@@std@@SAIABV?$allocator@U?$tvec3@M$0A@@glm@@@2@@Z
	?max_size@?$_Default_allocator_traits@V?$allocator@U?$tvec4@M$0A@@glm@@@std@@@std@@SAIABV?$allocator@U?$tvec4@M$0A@@glm@@@2@@Z
	?max_size@?$_Default_allocator_traits@V?$allocator@UVertex2D@BookEngine@@@std@@@std@@SAIABV?$allocator@UVertex2D@BookEngine@@@2@@Z
	?max_size@?$_Default_allocator_traits@V?$allocator@V?$_List_unchecked_iterator@V?$_List_val@U?$_List_simple_types@U?$pair@$$CBI_N@std@@@std@@@std@@@std@@@std@@@std@@SAIABV?$allocator@V?$_List_unchecked_iterator@V?$_List_val@U?$_List_simple_types@U?$pair@$$CBI_N@std@@@std@@@std@@@std@@@2@@Z
	?max_size@?$_Default_allocator_traits@V?$allocator@VBatchRenderr@BookEngine@@@std@@@std@@SAIABV?$allocator@VBatchRenderr@BookEngine@@@2@@Z
	?max_size@?$_Default_allocator_traits@V?$allocator@VGlyph@BookEngine@@@std@@@std@@SAIABV?$allocator@VGlyph@BookEngine@@@2@@Z
	?max_size@?$_Tree@V?$_Tmap_traits@V?$basic_string@DU?$char_traits@D@std@@V?$allocator@D@2@@std@@PAUMix_Chunk@@U?$less@V?$basic_string@DU?$char_traits@D@std@@V?$allocator@D@2@@std@@@2@V?$allocator@U?$pair@$$CBV?$basic_string@DU?$char_traits@D@std@@V?$allocator@D@2@@std@@PAUMix_Chunk@@@std@@@2@$0A@@std@@@std@@QBEIXZ
	?max_size@?$_Tree@V?$_Tmap_traits@V?$basic_string@DU?$char_traits@D@std@@V?$allocator@D@2@@std@@PAU_Mix_Music@@U?$less@V?$basic_string@DU?$char_traits@D@std@@V?$allocator@D@2@@std@@@2@V?$allocator@U?$pair@$$CBV?$basic_string@DU?$char_traits@D@std@@V?$allocator@D@2@@std@@PAU_Mix_Music@@@std@@@2@$0A@@std@@@std@@QBEIXZ
	?max_size@?$_Tree@V?$_Tmap_traits@V?$basic_string@DU?$char_traits@D@std@@V?$allocator@D@2@@std@@UGLTexture@BookEngine@@U?$less@V?$basic_string@DU?$char_traits@D@std@@V?$allocator@D@2@@std@@@2@V?$allocator@U?$pair@$$CBV?$basic_string@DU?$char_traits@D@std@@V?$allocator@D@2@@std@@UGLTexture@BookEngine@@@std@@@2@$0A@@std@@@std@@QBEIXZ
	?max_size@?$basic_string@DU?$char_traits@D@std@@V?$allocator@D@2@@std@@QBEIXZ
	?max_size@?$list@U?$pair@$$CBI_N@std@@V?$allocator@U?$pair@$$CBI_N@std@@@2@@std@@QBEIXZ
	?max_size@?$vector@DV?$allocator@D@std@@@std@@QBEIXZ
	?max_size@?$vector@EV?$allocator@E@std@@@std@@QBEIXZ
	?max_size@?$vector@HV?$allocator@H@std@@@std@@QBEIXZ
	?max_size@?$vector@IV?$allocator@I@std@@@std@@QBEIXZ
	?max_size@?$vector@KV?$allocator@K@std@@@std@@QBEIXZ
	?max_size@?$vector@PAVGlyph@BookEngine@@V?$allocator@PAVGlyph@BookEngine@@@std@@@std@@QBEIXZ
	?max_size@?$vector@PAVIScreen@BookEngine@@V?$allocator@PAVIScreen@BookEngine@@@std@@@std@@QBEIXZ
	?max_size@?$vector@PAVParticleBatch2D@BookEngine@@V?$allocator@PAVParticleBatch2D@BookEngine@@@std@@@std@@QBEIXZ
	?max_size@?$vector@U?$tvec2@M$0A@@glm@@V?$allocator@U?$tvec2@M$0A@@glm@@@std@@@std@@QBEIXZ
	?max_size@?$vector@U?$tvec3@M$0A@@glm@@V?$allocator@U?$tvec3@M$0A@@glm@@@std@@@std@@QBEIXZ
	?max_size@?$vector@U?$tvec4@M$0A@@glm@@V?$allocator@U?$tvec4@M$0A@@glm@@@std@@@std@@QBEIXZ
	?max_size@?$vector@UVertex2D@BookEngine@@V?$allocator@UVertex2D@BookEngine@@@std@@@std@@QBEIXZ
	?max_size@?$vector@V?$_List_unchecked_iterator@V?$_List_val@U?$_List_simple_types@U?$pair@$$CBI_N@std@@@std@@@std@@@std@@V?$allocator@V?$_List_unchecked_iterator@V?$_List_val@U?$_List_simple_types@U?$pair@$$CBI_N@std@@@std@@@std@@@std@@@2@@std@@QBEIXZ
	?max_size@?$vector@VBatchRenderr@BookEngine@@V?$allocator@VBatchRenderr@BookEngine@@@std@@@std@@QBEIXZ
	?max_size@?$vector@VGlyph@BookEngine@@V?$allocator@VGlyph@BookEngine@@@std@@@std@@QBEIXZ
	?measure@SpriteFont@BookEngine@@QAE?AU?$tvec2@M$0A@@glm@@PBD@Z
	?move@?$char_traits@D@std@@SAPADQADQBDI@Z
	?not_eof@?$char_traits@D@std@@SAHABH@Z
	?open@?$basic_filebuf@DU?$char_traits@D@std@@@std@@QAEPAV12@PBDHH@Z
	?overflow@?$basic_filebuf@DU?$char_traits@D@std@@@std@@MAEHH@Z
	?overflow@?$basic_stringbuf@DU?$char_traits@D@std@@V?$allocator@D@2@@std@@MAEHH@Z
	?pbackfail@?$basic_filebuf@DU?$char_traits@D@std@@@std@@MAEHH@Z
	?pbackfail@?$basic_stringbuf@DU?$char_traits@D@std@@V?$allocator@D@2@@std@@MAEHH@Z
	?pointer_to@?$pointer_traits@PAD@std@@SAPADAAD@Z
	?pointer_to@?$pointer_traits@PAU?$pair@$$CBI_N@std@@@std@@SAPAU?$pair@$$CBI_N@2@AAU32@@Z
	?pointer_to@?$pointer_traits@PAU?$pair@$$CBV?$basic_string@DU?$char_traits@D@std@@V?$allocator@D@2@@std@@PAUMix_Chunk@@@std@@@std@@SAPAU?$pair@$$CBV?$basic_string@DU?$char_traits@D@std@@V?$allocator@D@2@@std@@PAUMix_Chunk@@@2@AAU32@@Z
	?pointer_to@?$pointer_traits@PAU?$pair@$$CBV?$basic_string@DU?$char_traits@D@std@@V?$allocator@D@2@@std@@PAU_Mix_Music@@@std@@@std@@SAPAU?$pair@$$CBV?$basic_string@DU?$char_traits@D@std@@V?$allocator@D@2@@std@@PAU_Mix_Music@@@2@AAU32@@Z
	?pointer_to@?$pointer_traits@PAU?$pair@$$CBV?$basic_string@DU?$char_traits@D@std@@V?$allocator@D@2@@std@@UGLTexture@BookEngine@@@std@@@std@@SAPAU?$pair@$$CBV?$basic_string@DU?$char_traits@D@std@@V?$allocator@D@2@@std@@UGLTexture@BookEngine@@@2@AAU32@@Z
	?push_back@?$_Temporary_range@PAVGlyph@BookEngine@@@std@@QAEX$$QAPAVGlyph@BookEngine@@@Z
	?push_back@?$basic_string@DU?$char_traits@D@std@@V?$allocator@D@2@@std@@QAEXD@Z
	?push_back@?$vector@HV?$allocator@H@std@@@std@@QAEXABH@Z
	?push_back@?$vector@IV?$allocator@I@std@@@std@@QAEXABI@Z
	?push_back@?$vector@PAVIScreen@BookEngine@@V?$allocator@PAVIScreen@BookEngine@@@std@@@std@@QAEXABQAVIScreen@BookEngine@@@Z
	?push_back@?$vector@PAVParticleBatch2D@BookEngine@@V?$allocator@PAVParticleBatch2D@BookEngine@@@std@@@std@@QAEXABQAVParticleBatch2D@BookEngine@@@Z
	?push_back@?$vector@U?$tvec2@M$0A@@glm@@V?$allocator@U?$tvec2@M$0A@@glm@@@std@@@std@@QAEXABU?$tvec2@M$0A@@glm@@@Z
	?push_back@?$vector@U?$tvec3@M$0A@@glm@@V?$allocator@U?$tvec3@M$0A@@glm@@@std@@@std@@QAEXABU?$tvec3@M$0A@@glm@@@Z
	?push_back@?$vector@U?$tvec4@M$0A@@glm@@V?$allocator@U?$tvec4@M$0A@@glm@@@std@@@std@@QAEXABU?$tvec4@M$0A@@glm@@@Z
	?release@?$unique_ptr@VScreenList@BookEngine@@U?$default_delete@VScreenList@BookEngine@@@std@@@std@@QAEPAVScreenList@BookEngine@@XZ
	?reserve@?$basic_string@DU?$char_traits@D@std@@V?$allocator@D@2@@std@@QAEXI@Z
	?reserve@?$vector@V?$_List_unchecked_iterator@V?$_List_val@U?$_List_simple_types@U?$pair@$$CBI_N@std@@@std@@@std@@@std@@V?$allocator@V?$_List_unchecked_iterator@V?$_List_val@U?$_List_simple_types@U?$pair@$$CBI_N@std@@@std@@@std@@@std@@@2@@std@@QAEXI@Z
	?reset@?$unique_ptr@VScreenList@BookEngine@@U?$default_delete@VScreenList@BookEngine@@@std@@@std@@QAEXPAVScreenList@BookEngine@@@Z
	?resize@?$vector@EV?$allocator@E@std@@@std@@QAEXI@Z
	?resize@?$vector@KV?$allocator@K@std@@@std@@QAEXIABK@Z
	?resize@?$vector@PAVGlyph@BookEngine@@V?$allocator@PAVGlyph@BookEngine@@@std@@@std@@QAEXI@Z
	?resize@?$vector@PAVIScreen@BookEngine@@V?$allocator@PAVIScreen@BookEngine@@@std@@@std@@QAEXI@Z
	?resize@?$vector@UVertex2D@BookEngine@@V?$allocator@UVertex2D@BookEngine@@@std@@@std@@QAEXI@Z
	?seekoff@?$basic_filebuf@DU?$char_traits@D@std@@@std@@MAE?AV?$fpos@U_Mbstatet@@@2@_JHH@Z
	?seekoff@?$basic_stringbuf@DU?$char_traits@D@std@@V?$allocator@D@2@@std@@MAE?AV?$fpos@U_Mbstatet@@@2@_JHH@Z
	?seekpos@?$basic_filebuf@DU?$char_traits@D@std@@@std@@MAE?AV?$fpos@U_Mbstatet@@@2@V32@H@Z
	?seekpos@?$basic_stringbuf@DU?$char_traits@D@std@@V?$allocator@D@2@@std@@MAE?AV?$fpos@U_Mbstatet@@@2@V32@H@Z
	?seekpos@?$fpos@U_Mbstatet@@@std@@QBE_JXZ
	?select_on_container_copy_construction@?$_Default_allocator_traits@V?$allocator@D@std@@@std@@SA?AV?$allocator@D@2@ABV32@@Z
	?select_on_container_copy_construction@?$_Default_allocator_traits@V?$allocator@E@std@@@std@@SA?AV?$allocator@E@2@ABV32@@Z
	?setbuf@?$basic_filebuf@DU?$char_traits@D@std@@@std@@MAEPAV?$basic_streambuf@DU?$char_traits@D@std@@@2@PAD_J@Z
	?sin@@YAMM@Z
	?size@?$_Hash@V?$_Umap_traits@I_NV?$_Uhash_compare@IU?$hash@I@std@@U?$equal_to@I@2@@std@@V?$allocator@U?$pair@$$CBI_N@std@@@2@$0A@@std@@@std@@QBEIXZ
	?size@?$_Tree@V?$_Tmap_traits@V?$basic_string@DU?$char_traits@D@std@@V?$allocator@D@2@@std@@PAUMix_Chunk@@U?$less@V?$basic_string@DU?$char_traits@D@std@@V?$allocator@D@2@@std@@@2@V?$allocator@U?$pair@$$CBV?$basic_string@DU?$char_traits@D@std@@V?$allocator@D@2@@std@@PAUMix_Chunk@@@std@@@2@$0A@@std@@@std@@QBEIXZ
	?size@?$_Tree@V?$_Tmap_traits@V?$basic_string@DU?$char_traits@D@std@@V?$allocator@D@2@@std@@PAU_Mix_Music@@U?$less@V?$basic_string@DU?$char_traits@D@std@@V?$allocator@D@2@@std@@@2@V?$allocator@U?$pair@$$CBV?$basic_string@DU?$char_traits@D@std@@V?$allocator@D@2@@std@@PAU_Mix_Music@@@std@@@2@$0A@@std@@@std@@QBEIXZ
	?size@?$basic_string@DU?$char_traits@D@std@@V?$allocator@D@2@@std@@QBEIXZ
	?size@?$list@U?$pair@$$CBI_N@std@@V?$allocator@U?$pair@$$CBI_N@std@@@2@@std@@QBEIXZ
	?size@?$vector@DV?$allocator@D@std@@@std@@QBEIXZ
	?size@?$vector@EV?$allocator@E@std@@@std@@QBEIXZ
	?size@?$vector@HV?$allocator@H@std@@@std@@QBEIXZ
	?size@?$vector@IV?$allocator@I@std@@@std@@QBEIXZ
	?size@?$vector@KV?$allocator@K@std@@@std@@QBEIXZ
	?size@?$vector@PAVGlyph@BookEngine@@V?$allocator@PAVGlyph@BookEngine@@@std@@@std@@QBEIXZ
	?size@?$vector@PAVIScreen@BookEngine@@V?$allocator@PAVIScreen@BookEngine@@@std@@@std@@QBEIXZ
	?size@?$vector@PAVParticleBatch2D@BookEngine@@V?$allocator@PAVParticleBatch2D@BookEngine@@@std@@@std@@QBEIXZ
	?size@?$vector@U?$tvec2@M$0A@@glm@@V?$allocator@U?$tvec2@M$0A@@glm@@@std@@@std@@QBEIXZ
	?size@?$vector@U?$tvec3@M$0A@@glm@@V?$allocator@U?$tvec3@M$0A@@glm@@@std@@@std@@QBEIXZ
	?size@?$vector@U?$tvec4@M$0A@@glm@@V?$allocator@U?$tvec4@M$0A@@glm@@@std@@@std@@QBEIXZ
	?size@?$vector@UVertex2D@BookEngine@@V?$allocator@UVertex2D@BookEngine@@@std@@@std@@QBEIXZ
	?size@?$vector@V?$_List_unchecked_iterator@V?$_List_val@U?$_List_simple_types@U?$pair@$$CBI_N@std@@@std@@@std@@@std@@V?$allocator@V?$_List_unchecked_iterator@V?$_List_val@U?$_List_simple_types@U?$pair@$$CBI_N@std@@@std@@@std@@@std@@@2@@std@@QBEIXZ
	?size@?$vector@VBatchRenderr@BookEngine@@V?$allocator@VBatchRenderr@BookEngine@@@std@@@std@@QBEIXZ
	?size@?$vector@VGlyph@BookEngine@@V?$allocator@VGlyph@BookEngine@@@std@@@std@@QBEIXZ
	?sqrt@@YAMM@Z
	?state@?$fpos@U_Mbstatet@@@std@@QBE?AU_Mbstatet@@XZ
	?substr@?$basic_string@DU?$char_traits@D@std@@V?$allocator@D@2@@std@@QBE?AV12@II@Z
	?swap@?$function@$$A6AXAAVParticle2D@BookEngine@@M@Z@std@@QAEXAAV12@@Z
	?sync@?$basic_filebuf@DU?$char_traits@D@std@@@std@@MAEHXZ
	?tan@@YAMM@Z
	?to_char_type@?$char_traits@D@std@@SADABH@Z
	?to_int_type@?$char_traits@D@std@@SAHABD@Z
	?to_string@std@@YA?AV?$basic_string@DU?$char_traits@D@std@@V?$allocator@D@2@@1@H@Z
	?uflow@?$basic_filebuf@DU?$char_traits@D@std@@@std@@MAEHXZ
	?underflow@?$basic_filebuf@DU?$char_traits@D@std@@@std@@MAEHXZ
	?underflow@?$basic_stringbuf@DU?$char_traits@D@std@@V?$allocator@D@2@@std@@MAEHXZ
	?wasKeyDown@InputManager@BookEngine@@AAE_NI@Z
	?what@exception@std@@UBEPBDXZ
	__local_stdio_printf_options
	_vfprintf_l
	acosf
	cosf
	fabsf
	fprintf
	printf
	sinf
	sqrtf
	tanf
